
binaries/output.elf:     file format elf32-littlearm


Disassembly of section .isr_vector:

08000000 <vectors>:
 8000000:	20018000 	andcs	r8, r1, r0
 8000004:	08000551 	stmdaeq	r0, {r0, r4, r6, r8, sl}
 8000008:	0800054d 	stmdaeq	r0, {r0, r2, r3, r6, r8, sl}
 800000c:	0800054d 	stmdaeq	r0, {r0, r2, r3, r6, r8, sl}
 8000010:	0800054d 	stmdaeq	r0, {r0, r2, r3, r6, r8, sl}
 8000014:	0800054d 	stmdaeq	r0, {r0, r2, r3, r6, r8, sl}
 8000018:	0800054d 	stmdaeq	r0, {r0, r2, r3, r6, r8, sl}
	...
 800002c:	0800054d 	stmdaeq	r0, {r0, r2, r3, r6, r8, sl}
 8000030:	0800054d 	stmdaeq	r0, {r0, r2, r3, r6, r8, sl}
 8000034:	00000000 	andeq	r0, r0, r0
 8000038:	080002a1 	stmdaeq	r0, {r0, r5, r7, r9}
 800003c:	080005d5 	stmdaeq	r0, {r0, r2, r4, r6, r7, r8, sl}
 8000040:	0800054d 	stmdaeq	r0, {r0, r2, r3, r6, r8, sl}
 8000044:	0800054d 	stmdaeq	r0, {r0, r2, r3, r6, r8, sl}
 8000048:	0800054d 	stmdaeq	r0, {r0, r2, r3, r6, r8, sl}
 800004c:	0800054d 	stmdaeq	r0, {r0, r2, r3, r6, r8, sl}
 8000050:	0800054d 	stmdaeq	r0, {r0, r2, r3, r6, r8, sl}
 8000054:	0800054d 	stmdaeq	r0, {r0, r2, r3, r6, r8, sl}
 8000058:	0800054d 	stmdaeq	r0, {r0, r2, r3, r6, r8, sl}
 800005c:	0800054d 	stmdaeq	r0, {r0, r2, r3, r6, r8, sl}
 8000060:	0800054d 	stmdaeq	r0, {r0, r2, r3, r6, r8, sl}
 8000064:	0800054d 	stmdaeq	r0, {r0, r2, r3, r6, r8, sl}
 8000068:	0800054d 	stmdaeq	r0, {r0, r2, r3, r6, r8, sl}
 800006c:	0800054d 	stmdaeq	r0, {r0, r2, r3, r6, r8, sl}
 8000070:	0800054d 	stmdaeq	r0, {r0, r2, r3, r6, r8, sl}
 8000074:	0800054d 	stmdaeq	r0, {r0, r2, r3, r6, r8, sl}
 8000078:	0800054d 	stmdaeq	r0, {r0, r2, r3, r6, r8, sl}
 800007c:	0800054d 	stmdaeq	r0, {r0, r2, r3, r6, r8, sl}
 8000080:	0800054d 	stmdaeq	r0, {r0, r2, r3, r6, r8, sl}
 8000084:	0800054d 	stmdaeq	r0, {r0, r2, r3, r6, r8, sl}
 8000088:	0800054d 	stmdaeq	r0, {r0, r2, r3, r6, r8, sl}
 800008c:	0800054d 	stmdaeq	r0, {r0, r2, r3, r6, r8, sl}
 8000090:	0800054d 	stmdaeq	r0, {r0, r2, r3, r6, r8, sl}
 8000094:	0800054d 	stmdaeq	r0, {r0, r2, r3, r6, r8, sl}
 8000098:	0800054d 	stmdaeq	r0, {r0, r2, r3, r6, r8, sl}
 800009c:	0800054d 	stmdaeq	r0, {r0, r2, r3, r6, r8, sl}
 80000a0:	0800054d 	stmdaeq	r0, {r0, r2, r3, r6, r8, sl}
 80000a4:	0800054d 	stmdaeq	r0, {r0, r2, r3, r6, r8, sl}
 80000a8:	0800054d 	stmdaeq	r0, {r0, r2, r3, r6, r8, sl}
 80000ac:	0800054d 	stmdaeq	r0, {r0, r2, r3, r6, r8, sl}
 80000b0:	0800054d 	stmdaeq	r0, {r0, r2, r3, r6, r8, sl}
 80000b4:	0800054d 	stmdaeq	r0, {r0, r2, r3, r6, r8, sl}
 80000b8:	0800054d 	stmdaeq	r0, {r0, r2, r3, r6, r8, sl}
 80000bc:	0800054d 	stmdaeq	r0, {r0, r2, r3, r6, r8, sl}
 80000c0:	0800054d 	stmdaeq	r0, {r0, r2, r3, r6, r8, sl}
 80000c4:	0800054d 	stmdaeq	r0, {r0, r2, r3, r6, r8, sl}
 80000c8:	0800054d 	stmdaeq	r0, {r0, r2, r3, r6, r8, sl}
 80000cc:	0800054d 	stmdaeq	r0, {r0, r2, r3, r6, r8, sl}
 80000d0:	0800054d 	stmdaeq	r0, {r0, r2, r3, r6, r8, sl}
 80000d4:	0800054d 	stmdaeq	r0, {r0, r2, r3, r6, r8, sl}
 80000d8:	0800054d 	stmdaeq	r0, {r0, r2, r3, r6, r8, sl}
 80000dc:	0800054d 	stmdaeq	r0, {r0, r2, r3, r6, r8, sl}
 80000e0:	0800054d 	stmdaeq	r0, {r0, r2, r3, r6, r8, sl}
 80000e4:	0800054d 	stmdaeq	r0, {r0, r2, r3, r6, r8, sl}
 80000e8:	0800054d 	stmdaeq	r0, {r0, r2, r3, r6, r8, sl}
 80000ec:	0800054d 	stmdaeq	r0, {r0, r2, r3, r6, r8, sl}
 80000f0:	0800054d 	stmdaeq	r0, {r0, r2, r3, r6, r8, sl}
 80000f4:	0800054d 	stmdaeq	r0, {r0, r2, r3, r6, r8, sl}
 80000f8:	0800054d 	stmdaeq	r0, {r0, r2, r3, r6, r8, sl}
 80000fc:	0800054d 	stmdaeq	r0, {r0, r2, r3, r6, r8, sl}
 8000100:	0800054d 	stmdaeq	r0, {r0, r2, r3, r6, r8, sl}
 8000104:	0800054d 	stmdaeq	r0, {r0, r2, r3, r6, r8, sl}
 8000108:	0800054d 	stmdaeq	r0, {r0, r2, r3, r6, r8, sl}
 800010c:	0800054d 	stmdaeq	r0, {r0, r2, r3, r6, r8, sl}
 8000110:	0800054d 	stmdaeq	r0, {r0, r2, r3, r6, r8, sl}
 8000114:	0800054d 	stmdaeq	r0, {r0, r2, r3, r6, r8, sl}
 8000118:	0800054d 	stmdaeq	r0, {r0, r2, r3, r6, r8, sl}
 800011c:	0800054d 	stmdaeq	r0, {r0, r2, r3, r6, r8, sl}
	...

Disassembly of section .text:

08000150 <thread_two_fxn>:
 8000150:	e92d 41f0 	stmdb	sp!, {r4, r5, r6, r7, r8, lr}
 8000154:	f000 fa48 	bl	80005e8 <get_tick_count>
 8000158:	4d10      	ldr	r5, [pc, #64]	@ (800019c <thread_two_fxn+0x4c>)
 800015a:	4604      	mov	r4, r0
 800015c:	2700      	movs	r7, #0
 800015e:	f04f 0801 	mov.w	r8, #1
 8000162:	4621      	mov	r1, r4
 8000164:	2005      	movs	r0, #5
 8000166:	f000 fa5b 	bl	8000620 <has_time_passed>
 800016a:	4606      	mov	r6, r0
 800016c:	b140      	cbz	r0, 8000180 <thread_two_fxn+0x30>
 800016e:	f000 fa3b 	bl	80005e8 <get_tick_count>
 8000172:	69ab      	ldr	r3, [r5, #24]
 8000174:	4604      	mov	r4, r0
 8000176:	b167      	cbz	r7, 8000192 <thread_two_fxn+0x42>
 8000178:	f443 1300 	orr.w	r3, r3, #2097152	@ 0x200000
 800017c:	61ab      	str	r3, [r5, #24]
 800017e:	2700      	movs	r7, #0
 8000180:	f1b8 0f00 	cmp.w	r8, #0
 8000184:	d002      	beq.n	800018c <thread_two_fxn+0x3c>
 8000186:	201e      	movs	r0, #30
 8000188:	f000 f9b8 	bl	80004fc <neo_thread_sleep>
 800018c:	f04f 0800 	mov.w	r8, #0
 8000190:	e7e7      	b.n	8000162 <thread_two_fxn+0x12>
 8000192:	f043 0320 	orr.w	r3, r3, #32
 8000196:	61ab      	str	r3, [r5, #24]
 8000198:	4637      	mov	r7, r6
 800019a:	e7f1      	b.n	8000180 <thread_two_fxn+0x30>
 800019c:	40020000 	andmi	r0, r2, r0

080001a0 <thread_one_fxn>:
 80001a0:	e92d 41f0 	stmdb	sp!, {r4, r5, r6, r7, r8, lr}
 80001a4:	f000 fa20 	bl	80005e8 <get_tick_count>
 80001a8:	4d10      	ldr	r5, [pc, #64]	@ (80001ec <thread_one_fxn+0x4c>)
 80001aa:	4604      	mov	r4, r0
 80001ac:	f04f 0801 	mov.w	r8, #1
 80001b0:	2700      	movs	r7, #0
 80001b2:	4621      	mov	r1, r4
 80001b4:	2005      	movs	r0, #5
 80001b6:	f000 fa33 	bl	8000620 <has_time_passed>
 80001ba:	4606      	mov	r6, r0
 80001bc:	b140      	cbz	r0, 80001d0 <thread_one_fxn+0x30>
 80001be:	f000 fa13 	bl	80005e8 <get_tick_count>
 80001c2:	69ab      	ldr	r3, [r5, #24]
 80001c4:	4604      	mov	r4, r0
 80001c6:	b167      	cbz	r7, 80001e2 <thread_one_fxn+0x42>
 80001c8:	f443 1300 	orr.w	r3, r3, #2097152	@ 0x200000
 80001cc:	61ab      	str	r3, [r5, #24]
 80001ce:	2700      	movs	r7, #0
 80001d0:	f1b8 0f00 	cmp.w	r8, #0
 80001d4:	d002      	beq.n	80001dc <thread_one_fxn+0x3c>
 80001d6:	201e      	movs	r0, #30
 80001d8:	f000 f990 	bl	80004fc <neo_thread_sleep>
 80001dc:	f04f 0800 	mov.w	r8, #0
 80001e0:	e7e7      	b.n	80001b2 <thread_one_fxn+0x12>
 80001e2:	f043 0320 	orr.w	r3, r3, #32
 80001e6:	61ab      	str	r3, [r5, #24]
 80001e8:	4637      	mov	r7, r6
 80001ea:	e7f1      	b.n	80001d0 <thread_one_fxn+0x30>
 80001ec:	40020000 	andmi	r0, r2, r0

080001f0 <idle_thread_function>:
 80001f0:	bf00      	nop
 80001f2:	e7fd      	b.n	80001f0 <idle_thread_function>

080001f4 <neo_kernel_init>:
 80001f4:	b507      	push	{r0, r1, r2, lr}
 80001f6:	b672      	cpsid	i
 80001f8:	2064      	movs	r0, #100	@ 0x64
 80001fa:	f000 fa1b 	bl	8000634 <setup_systick>
 80001fe:	4a18      	ldr	r2, [pc, #96]	@ (8000260 <neo_kernel_init+0x6c>)
 8000200:	4918      	ldr	r1, [pc, #96]	@ (8000264 <neo_kernel_init+0x70>)
 8000202:	23f0      	movs	r3, #240	@ 0xf0
 8000204:	f882 3022 	strb.w	r3, [r2, #34]	@ 0x22
 8000208:	2300      	movs	r3, #0
 800020a:	f882 3023 	strb.w	r3, [r2, #35]	@ 0x23
 800020e:	f101 022c 	add.w	r2, r1, #44	@ 0x2c
 8000212:	628a      	str	r2, [r1, #40]	@ 0x28
 8000214:	f101 0288 	add.w	r2, r1, #136	@ 0x88
 8000218:	f022 0207 	bic.w	r2, r2, #7
 800021c:	f881 3034 	strb.w	r3, [r1, #52]	@ 0x34
 8000220:	62ca      	str	r2, [r1, #44]	@ 0x2c
 8000222:	6aca      	ldr	r2, [r1, #44]	@ 0x2c
 8000224:	9301      	str	r3, [sp, #4]
 8000226:	f04f 7080 	mov.w	r0, #16777216	@ 0x1000000
 800022a:	f842 0c04 	str.w	r0, [r2, #-4]
 800022e:	e942 3305 	strd	r3, r3, [r2, #-20]
 8000232:	480d      	ldr	r0, [pc, #52]	@ (8000268 <neo_kernel_init+0x74>)
 8000234:	f842 3c20 	str.w	r3, [r2, #-32]
 8000238:	e942 3307 	strd	r3, r3, [r2, #-28]
 800023c:	e942 3003 	strd	r3, r0, [r2, #-12]
 8000240:	f1a2 0020 	sub.w	r0, r2, #32
 8000244:	9a01      	ldr	r2, [sp, #4]
 8000246:	2a07      	cmp	r2, #7
 8000248:	dd04      	ble.n	8000254 <neo_kernel_init+0x60>
 800024a:	62c8      	str	r0, [r1, #44]	@ 0x2c
 800024c:	b662      	cpsie	i
 800024e:	b003      	add	sp, #12
 8000250:	f85d fb04 	ldr.w	pc, [sp], #4
 8000254:	9a01      	ldr	r2, [sp, #4]
 8000256:	f840 3d04 	str.w	r3, [r0, #-4]!
 800025a:	3201      	adds	r2, #1
 800025c:	9201      	str	r2, [sp, #4]
 800025e:	e7f1      	b.n	8000244 <neo_kernel_init+0x50>
 8000260:	e000ed00 	and	lr, r0, r0, lsl #26
 8000264:	2000015c 	andcs	r0, r0, ip, asr r1
 8000268:	080001f1 	stmdaeq	r0, {r0, r4, r5, r6, r7, r8}

0800026c <thread_handler>:
 800026c:	4baf      	ldr	r3, [pc, #700]	@ (800052c <neo_thread_sleep+0x30>)
 800026e:	681b      	ldr	r3, [r3, #0]
 8000270:	b193      	cbz	r3, 8000298 <thread_time_slice_not_expired>
 8000272:	4aaf      	ldr	r2, [pc, #700]	@ (8000530 <neo_thread_sleep+0x34>)
 8000274:	6812      	ldr	r2, [r2, #0]
 8000276:	2a01      	cmp	r2, #1
 8000278:	d009      	beq.n	800028e <first_time_thread_handler>
 800027a:	f000 b91f 	b.w	80004bc <update_sleeping_threads>

0800027e <return_from_update>:
 800027e:	48ad      	ldr	r0, [pc, #692]	@ (8000534 <neo_thread_sleep+0x38>)
 8000280:	6801      	ldr	r1, [r0, #0]
 8000282:	48ad      	ldr	r0, [pc, #692]	@ (8000538 <neo_thread_sleep+0x3c>)
 8000284:	6800      	ldr	r0, [r0, #0]
 8000286:	eba1 0100 	sub.w	r1, r1, r0
 800028a:	290a      	cmp	r1, #10
 800028c:	db04      	blt.n	8000298 <thread_time_slice_not_expired>

0800028e <first_time_thread_handler>:
 800028e:	4a03      	ldr	r2, [pc, #12]	@ (800029c <thread_time_slice_not_expired+0x4>)
 8000290:	6853      	ldr	r3, [r2, #4]
 8000292:	f043 5380 	orr.w	r3, r3, #268435456	@ 0x10000000
 8000296:	6053      	str	r3, [r2, #4]

08000298 <thread_time_slice_not_expired>:
 8000298:	f000 b9a4 	b.w	80005e4 <exit_from_interrupt_>
 800029c:	e000ed00 	and	lr, r0, r0, lsl #26

080002a0 <PendSV_handler>:
 80002a0:	b672      	cpsid	i
 80002a2:	48a3      	ldr	r0, [pc, #652]	@ (8000530 <neo_thread_sleep+0x34>)
 80002a4:	6800      	ldr	r0, [r0, #0]
 80002a6:	2801      	cmp	r0, #1
 80002a8:	d001      	beq.n	80002ae <skip_save>
 80002aa:	e92d 0ff0 	stmdb	sp!, {r4, r5, r6, r7, r8, r9, sl, fp}

080002ae <skip_save>:
 80002ae:	f000 b820 	b.w	80002f2 <neo_thread_scheduler>

080002b2 <return_from_scheduler>:
 80002b2:	f000 b804 	b.w	80002be <neo_context_switch>

080002b6 <switch>:
 80002b6:	e8bd 0ff0 	ldmia.w	sp!, {r4, r5, r6, r7, r8, r9, sl, fp}
 80002ba:	b662      	cpsie	i
 80002bc:	4770      	bx	lr

080002be <neo_context_switch>:
 80002be:	4b9f      	ldr	r3, [pc, #636]	@ (800053c <neo_thread_sleep+0x40>)
 80002c0:	681b      	ldr	r3, [r3, #0]
 80002c2:	b1ab      	cbz	r3, 80002f0 <neo_context_switch+0x32>
 80002c4:	4b9a      	ldr	r3, [pc, #616]	@ (8000530 <neo_thread_sleep+0x34>)
 80002c6:	681b      	ldr	r3, [r3, #0]
 80002c8:	2b01      	cmp	r3, #1
 80002ca:	d006      	beq.n	80002da <neo_context_switch+0x1c>
 80002cc:	4a9c      	ldr	r2, [pc, #624]	@ (8000540 <neo_thread_sleep+0x44>)
 80002ce:	4b9d      	ldr	r3, [pc, #628]	@ (8000544 <neo_thread_sleep+0x48>)
 80002d0:	681b      	ldr	r3, [r3, #0]
 80002d2:	f852 0023 	ldr.w	r0, [r2, r3, lsl #2]
 80002d6:	f8c0 d000 	str.w	sp, [r0]
 80002da:	4a99      	ldr	r2, [pc, #612]	@ (8000540 <neo_thread_sleep+0x44>)
 80002dc:	4b9a      	ldr	r3, [pc, #616]	@ (8000548 <neo_thread_sleep+0x4c>)
 80002de:	681b      	ldr	r3, [r3, #0]
 80002e0:	f852 0023 	ldr.w	r0, [r2, r3, lsl #2]
 80002e4:	f8d0 d000 	ldr.w	sp, [r0]
 80002e8:	4891      	ldr	r0, [pc, #580]	@ (8000530 <neo_thread_sleep+0x34>)
 80002ea:	f04f 0300 	mov.w	r3, #0
 80002ee:	6003      	str	r3, [r0, #0]
 80002f0:	e7e1      	b.n	80002b6 <switch>

080002f2 <neo_thread_scheduler>:
 80002f2:	4b29      	ldr	r3, [pc, #164]	@ (8000398 <neo_thread_scheduler+0xa6>)
 80002f4:	f8d3 2088 	ldr.w	r2, [r3, #136]	@ 0x88
 80002f8:	b34a      	cbz	r2, 800034e <neo_thread_scheduler+0x5c>
 80002fa:	4a28      	ldr	r2, [pc, #160]	@ (800039c <neo_thread_scheduler+0xaa>)
 80002fc:	6812      	ldr	r2, [r2, #0]
 80002fe:	2a00      	cmp	r2, #0
 8000300:	d13e      	bne.n	8000380 <neo_thread_scheduler+0x8e>
 8000302:	f8d3 108c 	ldr.w	r1, [r3, #140]	@ 0x8c
 8000306:	f8c3 1090 	str.w	r1, [r3, #144]	@ 0x90
 800030a:	f8d3 1090 	ldr.w	r1, [r3, #144]	@ 0x90
 800030e:	f853 1021 	ldr.w	r1, [r3, r1, lsl #2]
 8000312:	7a09      	ldrb	r1, [r1, #8]
 8000314:	2901      	cmp	r1, #1
 8000316:	bf02      	ittt	eq
 8000318:	f8d3 1090 	ldreq.w	r1, [r3, #144]	@ 0x90
 800031c:	f853 1021 	ldreq.w	r1, [r3, r1, lsl #2]
 8000320:	720a      	strbeq	r2, [r1, #8]
 8000322:	f8d3 2090 	ldr.w	r2, [r3, #144]	@ 0x90
 8000326:	2a0a      	cmp	r2, #10
 8000328:	bf1d      	ittte	ne
 800032a:	f8d3 2090 	ldrne.w	r2, [r3, #144]	@ 0x90
 800032e:	f8d3 1088 	ldrne.w	r1, [r3, #136]	@ 0x88
 8000332:	3201      	addne	r2, #1
 8000334:	2200      	moveq	r2, #0
 8000336:	bf1c      	itt	ne
 8000338:	fbb2 f0f1 	udivne	r0, r2, r1
 800033c:	fb01 2210 	mlsne	r2, r1, r0, r2
 8000340:	4611      	mov	r1, r2
 8000342:	f853 0021 	ldr.w	r0, [r3, r1, lsl #2]
 8000346:	7a00      	ldrb	r0, [r0, #8]
 8000348:	b9e0      	cbnz	r0, 8000384 <neo_thread_scheduler+0x92>
 800034a:	f8c3 108c 	str.w	r1, [r3, #140]	@ 0x8c
 800034e:	f8d3 208c 	ldr.w	r2, [r3, #140]	@ 0x8c
 8000352:	f853 2022 	ldr.w	r2, [r3, r2, lsl #2]
 8000356:	2101      	movs	r1, #1
 8000358:	7211      	strb	r1, [r2, #8]
 800035a:	4a11      	ldr	r2, [pc, #68]	@ (80003a0 <neo_thread_scheduler+0xae>)
 800035c:	6812      	ldr	r2, [r2, #0]
 800035e:	f8c3 2094 	str.w	r2, [r3, #148]	@ 0x94
 8000362:	e7a6      	b.n	80002b2 <return_from_scheduler>
 8000364:	f853 1022 	ldr.w	r1, [r3, r2, lsl #2]
 8000368:	7a09      	ldrb	r1, [r1, #8]
 800036a:	b911      	cbnz	r1, 8000372 <neo_thread_scheduler+0x80>
 800036c:	f8c3 208c 	str.w	r2, [r3, #140]	@ 0x8c
 8000370:	e7ed      	b.n	800034e <neo_thread_scheduler+0x5c>
 8000372:	3201      	adds	r2, #1
 8000374:	f8d3 1088 	ldr.w	r1, [r3, #136]	@ 0x88
 8000378:	4291      	cmp	r1, r2
 800037a:	d8f3      	bhi.n	8000364 <neo_thread_scheduler+0x72>
 800037c:	220a      	movs	r2, #10
 800037e:	e7f5      	b.n	800036c <neo_thread_scheduler+0x7a>
 8000380:	2200      	movs	r2, #0
 8000382:	e7f7      	b.n	8000374 <neo_thread_scheduler+0x82>
 8000384:	f8d3 0088 	ldr.w	r0, [r3, #136]	@ 0x88
 8000388:	3101      	adds	r1, #1
 800038a:	4288      	cmp	r0, r1
 800038c:	bf98      	it	ls
 800038e:	2100      	movls	r1, #0
 8000390:	4291      	cmp	r1, r2
 8000392:	d1d6      	bne.n	8000342 <neo_thread_scheduler+0x50>
 8000394:	e7f2      	b.n	800037c <neo_thread_scheduler+0x8a>
 8000396:	bf00      	nop
 8000398:	2000015c 	andcs	r0, r0, ip, asr r1
 800039c:	20000000 	andcs	r0, r0, r0
 80003a0:	200001f8 			@ <UNDEFINED> instruction: 0x200001f8

080003a4 <neo_thread_init>:
 80003a4:	b573      	push	{r0, r1, r4, r5, r6, lr}
 80003a6:	b140      	cbz	r0, 80003ba <neo_thread_init+0x16>
 80003a8:	b139      	cbz	r1, 80003ba <neo_thread_init+0x16>
 80003aa:	b133      	cbz	r3, 80003ba <neo_thread_init+0x16>
 80003ac:	b672      	cpsid	i
 80003ae:	4c19      	ldr	r4, [pc, #100]	@ (8000414 <neo_thread_init+0x70>)
 80003b0:	f8d4 5088 	ldr.w	r5, [r4, #136]	@ 0x88
 80003b4:	2d09      	cmp	r5, #9
 80003b6:	d903      	bls.n	80003c0 <neo_thread_init+0x1c>
 80003b8:	b662      	cpsie	i
 80003ba:	2000      	movs	r0, #0
 80003bc:	b002      	add	sp, #8
 80003be:	bd70      	pop	{r4, r5, r6, pc}
 80003c0:	f8d4 5088 	ldr.w	r5, [r4, #136]	@ 0x88
 80003c4:	1c6e      	adds	r6, r5, #1
 80003c6:	f8c4 6088 	str.w	r6, [r4, #136]	@ 0x88
 80003ca:	f844 0025 	str.w	r0, [r4, r5, lsl #2]
 80003ce:	9c06      	ldr	r4, [sp, #24]
 80003d0:	4423      	add	r3, r4
 80003d2:	f023 0307 	bic.w	r3, r3, #7
 80003d6:	f04f 7480 	mov.w	r4, #16777216	@ 0x1000000
 80003da:	e943 1402 	strd	r1, r4, [r3, #-8]
 80003de:	2100      	movs	r1, #0
 80003e0:	e943 1104 	strd	r1, r1, [r3, #-16]
 80003e4:	e943 1106 	strd	r1, r1, [r3, #-24]
 80003e8:	f843 1c1c 	str.w	r1, [r3, #-28]
 80003ec:	f1a3 0420 	sub.w	r4, r3, #32
 80003f0:	f843 2c20 	str.w	r2, [r3, #-32]
 80003f4:	9101      	str	r1, [sp, #4]
 80003f6:	9b01      	ldr	r3, [sp, #4]
 80003f8:	2b07      	cmp	r3, #7
 80003fa:	dd05      	ble.n	8000408 <neo_thread_init+0x64>
 80003fc:	2304      	movs	r3, #4
 80003fe:	6004      	str	r4, [r0, #0]
 8000400:	7203      	strb	r3, [r0, #8]
 8000402:	b662      	cpsie	i
 8000404:	2001      	movs	r0, #1
 8000406:	e7d9      	b.n	80003bc <neo_thread_init+0x18>
 8000408:	9b01      	ldr	r3, [sp, #4]
 800040a:	f844 1d04 	str.w	r1, [r4, #-4]!
 800040e:	3301      	adds	r3, #1
 8000410:	9301      	str	r3, [sp, #4]
 8000412:	e7f0      	b.n	80003f6 <neo_thread_init+0x52>
 8000414:	2000015c 	andcs	r0, r0, ip, asr r1

08000418 <neo_thread_start>:
 8000418:	b672      	cpsid	i
 800041a:	4b08      	ldr	r3, [pc, #32]	@ (800043c <neo_thread_start+0x24>)
 800041c:	2201      	movs	r2, #1
 800041e:	f8c3 2098 	str.w	r2, [r3, #152]	@ 0x98
 8000422:	7a03      	ldrb	r3, [r0, #8]
 8000424:	2b04      	cmp	r3, #4
 8000426:	d105      	bne.n	8000434 <neo_thread_start+0x1c>
 8000428:	2300      	movs	r3, #0
 800042a:	7203      	strb	r3, [r0, #8]
 800042c:	b662      	cpsie	i
 800042e:	f04f 0001 	mov.w	r0, #1
 8000432:	4770      	bx	lr
 8000434:	b662      	cpsie	i
 8000436:	f04f 0000 	mov.w	r0, #0
 800043a:	4770      	bx	lr
 800043c:	2000015c 	andcs	r0, r0, ip, asr r1

08000440 <neo_thread_start_all_new>:
 8000440:	b672      	cpsid	i
 8000442:	2300      	movs	r3, #0
 8000444:	4a0b      	ldr	r2, [pc, #44]	@ (8000474 <neo_thread_start_all_new+0x34>)
 8000446:	4618      	mov	r0, r3
 8000448:	f8d2 1088 	ldr.w	r1, [r2, #136]	@ 0x88
 800044c:	4299      	cmp	r1, r3
 800044e:	d804      	bhi.n	800045a <neo_thread_start_all_new+0x1a>
 8000450:	2301      	movs	r3, #1
 8000452:	f8c2 3098 	str.w	r3, [r2, #152]	@ 0x98
 8000456:	b662      	cpsie	i
 8000458:	4770      	bx	lr
 800045a:	f852 1023 	ldr.w	r1, [r2, r3, lsl #2]
 800045e:	7a09      	ldrb	r1, [r1, #8]
 8000460:	2904      	cmp	r1, #4
 8000462:	bf08      	it	eq
 8000464:	f852 1023 	ldreq.w	r1, [r2, r3, lsl #2]
 8000468:	f103 0301 	add.w	r3, r3, #1
 800046c:	bf08      	it	eq
 800046e:	7208      	strbeq	r0, [r1, #8]
 8000470:	e7ea      	b.n	8000448 <neo_thread_start_all_new+0x8>
 8000472:	bf00      	nop
 8000474:	2000015c 	andcs	r0, r0, ip, asr r1

08000478 <neo_thread_resume>:
 8000478:	b672      	cpsid	i
 800047a:	7a03      	ldrb	r3, [r0, #8]
 800047c:	2b03      	cmp	r3, #3
 800047e:	d105      	bne.n	800048c <neo_thread_resume+0x14>
 8000480:	2300      	movs	r3, #0
 8000482:	7203      	strb	r3, [r0, #8]
 8000484:	b662      	cpsie	i
 8000486:	f04f 0001 	mov.w	r0, #1
 800048a:	4770      	bx	lr
 800048c:	b662      	cpsie	i
 800048e:	f04f 0000 	mov.w	r0, #0
 8000492:	4770      	bx	lr

08000494 <neo_thread_pause>:
 8000494:	b672      	cpsid	i
 8000496:	4b07      	ldr	r3, [pc, #28]	@ (80004b4 <neo_thread_pause+0x20>)
 8000498:	f8d3 208c 	ldr.w	r2, [r3, #140]	@ 0x8c
 800049c:	f853 3022 	ldr.w	r3, [r3, r2, lsl #2]
 80004a0:	2203      	movs	r2, #3
 80004a2:	721a      	strb	r2, [r3, #8]
 80004a4:	4a04      	ldr	r2, [pc, #16]	@ (80004b8 <neo_thread_pause+0x24>)
 80004a6:	6853      	ldr	r3, [r2, #4]
 80004a8:	f043 5380 	orr.w	r3, r3, #268435456	@ 0x10000000
 80004ac:	6053      	str	r3, [r2, #4]
 80004ae:	b662      	cpsie	i
 80004b0:	4770      	bx	lr
 80004b2:	bf00      	nop
 80004b4:	2000015c 	andcs	r0, r0, ip, asr r1
 80004b8:	e000ed00 	and	lr, r0, r0, lsl #26

080004bc <update_sleeping_threads>:
 80004bc:	f04f 0000 	mov.w	r0, #0
 80004c0:	491e      	ldr	r1, [pc, #120]	@ (800053c <neo_thread_sleep+0x40>)
 80004c2:	6809      	ldr	r1, [r1, #0]
 80004c4:	4a1e      	ldr	r2, [pc, #120]	@ (8000540 <neo_thread_sleep+0x44>)

080004c6 <sleeping_threads_loop>:
 80004c6:	4288      	cmp	r0, r1
 80004c8:	d017      	beq.n	80004fa <exit_loop>
 80004ca:	6813      	ldr	r3, [r2, #0]
 80004cc:	f893 c008 	ldrb.w	ip, [r3, #8]
 80004d0:	f1bc 0f02 	cmp.w	ip, #2
 80004d4:	d10c      	bne.n	80004f0 <next_iter>
 80004d6:	f8d3 c004 	ldr.w	ip, [r3, #4]
 80004da:	f1bc 0c01 	subs.w	ip, ip, #1
 80004de:	f8c3 c004 	str.w	ip, [r3, #4]
 80004e2:	f1bc 0f00 	cmp.w	ip, #0
 80004e6:	d103      	bne.n	80004f0 <next_iter>
 80004e8:	f04f 0c00 	mov.w	ip, #0
 80004ec:	f883 c008 	strb.w	ip, [r3, #8]

080004f0 <next_iter>:
 80004f0:	f102 0204 	add.w	r2, r2, #4
 80004f4:	f100 0001 	add.w	r0, r0, #1
 80004f8:	e7e5      	b.n	80004c6 <sleeping_threads_loop>

080004fa <exit_loop>:
 80004fa:	e6c0      	b.n	800027e <return_from_update>

080004fc <neo_thread_sleep>:
 80004fc:	b672      	cpsid	i
 80004fe:	4b09      	ldr	r3, [pc, #36]	@ (8000524 <neo_thread_sleep+0x28>)
 8000500:	f8d3 208c 	ldr.w	r2, [r3, #140]	@ 0x8c
 8000504:	f853 2022 	ldr.w	r2, [r3, r2, lsl #2]
 8000508:	2102      	movs	r1, #2
 800050a:	7211      	strb	r1, [r2, #8]
 800050c:	f8d3 208c 	ldr.w	r2, [r3, #140]	@ 0x8c
 8000510:	f853 3022 	ldr.w	r3, [r3, r2, lsl #2]
 8000514:	4a04      	ldr	r2, [pc, #16]	@ (8000528 <neo_thread_sleep+0x2c>)
 8000516:	6058      	str	r0, [r3, #4]
 8000518:	6853      	ldr	r3, [r2, #4]
 800051a:	f043 5380 	orr.w	r3, r3, #268435456	@ 0x10000000
 800051e:	6053      	str	r3, [r2, #4]
 8000520:	b662      	cpsie	i
 8000522:	4770      	bx	lr
 8000524:	2000015c 	andcs	r0, r0, ip, asr r1
 8000528:	e000ed00 	and	lr, r0, r0, lsl #26
 800052c:	200001f4 			@ <UNDEFINED> instruction: 0x200001f4
 8000530:	20000000 	andcs	r0, r0, r0
 8000534:	200001f8 			@ <UNDEFINED> instruction: 0x200001f8
 8000538:	200001f0 			@ <UNDEFINED> instruction: 0x200001f0
 800053c:	200001e4 	andcs	r0, r0, r4, ror #3
 8000540:	2000015c 	andcs	r0, r0, ip, asr r1
 8000544:	200001ec 	andcs	r0, r0, ip, ror #3
 8000548:	200001e8 	andcs	r0, r0, r8, ror #3

0800054c <default_handler>:
 800054c:	f000 b830 	b.w	80005b0 <system_reset>

08000550 <reset_handler>:
 8000550:	b510      	push	{r4, lr}
 8000552:	490d      	ldr	r1, [pc, #52]	@ (8000588 <reset_handler+0x38>)
 8000554:	4b0d      	ldr	r3, [pc, #52]	@ (800058c <reset_handler+0x3c>)
 8000556:	480e      	ldr	r0, [pc, #56]	@ (8000590 <reset_handler+0x40>)
 8000558:	1a5b      	subs	r3, r3, r1
 800055a:	2200      	movs	r2, #0
 800055c:	429a      	cmp	r2, r3
 800055e:	d109      	bne.n	8000574 <reset_handler+0x24>
 8000560:	4a0c      	ldr	r2, [pc, #48]	@ (8000594 <reset_handler+0x44>)
 8000562:	4b0d      	ldr	r3, [pc, #52]	@ (8000598 <reset_handler+0x48>)
 8000564:	1ad1      	subs	r1, r2, r3
 8000566:	2200      	movs	r2, #0
 8000568:	4610      	mov	r0, r2
 800056a:	428a      	cmp	r2, r1
 800056c:	d108      	bne.n	8000580 <reset_handler+0x30>
 800056e:	f000 f881 	bl	8000674 <main>
 8000572:	e7fe      	b.n	8000572 <reset_handler+0x22>
 8000574:	f810 4b01 	ldrb.w	r4, [r0], #1
 8000578:	f801 4b01 	strb.w	r4, [r1], #1
 800057c:	3201      	adds	r2, #1
 800057e:	e7ed      	b.n	800055c <reset_handler+0xc>
 8000580:	f803 0b01 	strb.w	r0, [r3], #1
 8000584:	3201      	adds	r2, #1
 8000586:	e7f0      	b.n	800056a <reset_handler+0x1a>
 8000588:	20000000 	andcs	r0, r0, r0
 800058c:	20000004 	andcs	r0, r0, r4
 8000590:	080006c4 	stmdaeq	r0, {r2, r6, r7, r9, sl}
 8000594:	200001fc 			@ <UNDEFINED> instruction: 0x200001fc
 8000598:	20000004 	andcs	r0, r0, r4

0800059c <enable_fpu>:
 800059c:	4a03      	ldr	r2, [pc, #12]	@ (80005ac <enable_fpu+0x10>)
 800059e:	f8d2 3088 	ldr.w	r3, [r2, #136]	@ 0x88
 80005a2:	f443 0370 	orr.w	r3, r3, #15728640	@ 0xf00000
 80005a6:	f8c2 3088 	str.w	r3, [r2, #136]	@ 0x88
 80005aa:	4770      	bx	lr
 80005ac:	e000ed00 	and	lr, r0, r0, lsl #26

080005b0 <system_reset>:
 80005b0:	f3bf 8f4f 	dsb	sy
 80005b4:	4905      	ldr	r1, [pc, #20]	@ (80005cc <system_reset+0x1c>)
 80005b6:	4b06      	ldr	r3, [pc, #24]	@ (80005d0 <system_reset+0x20>)
 80005b8:	68ca      	ldr	r2, [r1, #12]
 80005ba:	f402 62e0 	and.w	r2, r2, #1792	@ 0x700
 80005be:	4313      	orrs	r3, r2
 80005c0:	60cb      	str	r3, [r1, #12]
 80005c2:	f3bf 8f4f 	dsb	sy
 80005c6:	bf00      	nop
 80005c8:	e7fd      	b.n	80005c6 <system_reset+0x16>
 80005ca:	bf00      	nop
 80005cc:	e000ed00 	and	lr, r0, r0, lsl #26
 80005d0:	05fa0004 	ldrbeq	r0, [sl, #4]!

080005d4 <SysTick_handler>:
 80005d4:	b672      	cpsid	i
 80005d6:	4826      	ldr	r0, [pc, #152]	@ (8000670 <default_thread_handler+0x4>)
 80005d8:	6801      	ldr	r1, [r0, #0]
 80005da:	f101 0101 	add.w	r1, r1, #1
 80005de:	6001      	str	r1, [r0, #0]
 80005e0:	f7ff be44 	b.w	800026c <thread_handler>

080005e4 <exit_from_interrupt_>:
 80005e4:	b662      	cpsie	i
 80005e6:	4770      	bx	lr

080005e8 <get_tick_count>:
 80005e8:	b672      	cpsid	i
 80005ea:	4b02      	ldr	r3, [pc, #8]	@ (80005f4 <get_tick_count+0xc>)
 80005ec:	6818      	ldr	r0, [r3, #0]
 80005ee:	b662      	cpsie	i
 80005f0:	4770      	bx	lr
 80005f2:	bf00      	nop
 80005f4:	200001f8 			@ <UNDEFINED> instruction: 0x200001f8

080005f8 <LED_setup>:
 80005f8:	4a07      	ldr	r2, [pc, #28]	@ (8000618 <LED_setup+0x20>)
 80005fa:	6b13      	ldr	r3, [r2, #48]	@ 0x30
 80005fc:	f043 0301 	orr.w	r3, r3, #1
 8000600:	6313      	str	r3, [r2, #48]	@ 0x30
 8000602:	4b06      	ldr	r3, [pc, #24]	@ (800061c <LED_setup+0x24>)
 8000604:	681a      	ldr	r2, [r3, #0]
 8000606:	f442 6280 	orr.w	r2, r2, #1024	@ 0x400
 800060a:	601a      	str	r2, [r3, #0]
 800060c:	681a      	ldr	r2, [r3, #0]
 800060e:	f422 6200 	bic.w	r2, r2, #2048	@ 0x800
 8000612:	601a      	str	r2, [r3, #0]
 8000614:	4770      	bx	lr
 8000616:	bf00      	nop
 8000618:	40023800 	andmi	r3, r2, r0, lsl #16
 800061c:	40020000 	andmi	r0, r2, r0

08000620 <has_time_passed>:
 8000620:	b508      	push	{r3, lr}
 8000622:	4602      	mov	r2, r0
 8000624:	f7ff ffe0 	bl	80005e8 <get_tick_count>
 8000628:	1a40      	subs	r0, r0, r1
 800062a:	4290      	cmp	r0, r2
 800062c:	bf34      	ite	cc
 800062e:	2000      	movcc	r0, #0
 8000630:	2001      	movcs	r0, #1
 8000632:	bd08      	pop	{r3, pc}

08000634 <setup_systick>:
 8000634:	f04f 22e0 	mov.w	r2, #3758153728	@ 0xe000e000
 8000638:	f44f 717a 	mov.w	r1, #1000	@ 0x3e8
 800063c:	6913      	ldr	r3, [r2, #16]
 800063e:	f043 0301 	orr.w	r3, r3, #1
 8000642:	6113      	str	r3, [r2, #16]
 8000644:	6913      	ldr	r3, [r2, #16]
 8000646:	f043 0304 	orr.w	r3, r3, #4
 800064a:	6113      	str	r3, [r2, #16]
 800064c:	6913      	ldr	r3, [r2, #16]
 800064e:	f043 0302 	orr.w	r3, r3, #2
 8000652:	6113      	str	r3, [r2, #16]
 8000654:	4b04      	ldr	r3, [pc, #16]	@ (8000668 <setup_systick+0x34>)
 8000656:	4343      	muls	r3, r0
 8000658:	fbb3 f3f1 	udiv	r3, r3, r1
 800065c:	3b01      	subs	r3, #1
 800065e:	f023 437f 	bic.w	r3, r3, #4278190080	@ 0xff000000
 8000662:	6153      	str	r3, [r2, #20]
 8000664:	4770      	bx	lr
 8000666:	bf00      	nop
 8000668:	00f42400 	rscseq	r2, r4, r0, lsl #8

0800066c <default_thread_handler>:
 800066c:	4770      	bx	lr
 800066e:	01f80000 	mvnseq	r0, r0
 8000672:	 	strlt	r2, [r7, #-0]

08000674 <main>:
 8000674:	b507      	push	{r0, r1, r2, lr}
 8000676:	f7ff ffbf 	bl	80005f8 <LED_setup>
 800067a:	f7ff fdbb 	bl	80001f4 <neo_kernel_init>
 800067e:	4b0b      	ldr	r3, [pc, #44]	@ (80006ac <main+0x38>)
 8000680:	490b      	ldr	r1, [pc, #44]	@ (80006b0 <main+0x3c>)
 8000682:	24a0      	movs	r4, #160	@ 0xa0
 8000684:	2200      	movs	r2, #0
 8000686:	1918      	adds	r0, r3, r4
 8000688:	9400      	str	r4, [sp, #0]
 800068a:	f7ff fe8b 	bl	80003a4 <neo_thread_init>
 800068e:	4b09      	ldr	r3, [pc, #36]	@ (80006b4 <main+0x40>)
 8000690:	4909      	ldr	r1, [pc, #36]	@ (80006b8 <main+0x44>)
 8000692:	9400      	str	r4, [sp, #0]
 8000694:	2200      	movs	r2, #0
 8000696:	1918      	adds	r0, r3, r4
 8000698:	f7ff fe84 	bl	80003a4 <neo_thread_init>
 800069c:	4807      	ldr	r0, [pc, #28]	@ (80006bc <main+0x48>)
 800069e:	f7ff febb 	bl	8000418 <neo_thread_start>
 80006a2:	4807      	ldr	r0, [pc, #28]	@ (80006c0 <main+0x4c>)
 80006a4:	f7ff feb8 	bl	8000418 <neo_thread_start>
 80006a8:	e7fe      	b.n	80006a8 <main+0x34>
 80006aa:	bf00      	nop
 80006ac:	20000004 	andcs	r0, r0, r4
 80006b0:	080001a1 	stmdaeq	r0, {r0, r5, r7, r8}
 80006b4:	200000b0 	strhcs	r0, [r0], -r0	@ <UNPREDICTABLE>
 80006b8:	08000151 	stmdaeq	r0, {r0, r4, r6, r8}
 80006bc:	200000a4 	andcs	r0, r0, r4, lsr #1
 80006c0:	20000150 	andcs	r0, r0, r0, asr r1

Disassembly of section .data:

20000000 <is_first_time>:
20000000:	00000001 	andeq	r0, r0, r1
