
binaries/output.elf:     file format elf32-littlearm


Disassembly of section .isr_vector:

08000000 <vectors>:
 8000000:	20018000 	andcs	r8, r1, r0
 8000004:	08000355 	stmdaeq	r0, {r0, r2, r4, r6, r8, r9}
 8000008:	08000351 	stmdaeq	r0, {r0, r4, r6, r8, r9}
 800000c:	08000351 	stmdaeq	r0, {r0, r4, r6, r8, r9}
 8000010:	08000351 	stmdaeq	r0, {r0, r4, r6, r8, r9}
 8000014:	08000351 	stmdaeq	r0, {r0, r4, r6, r8, r9}
 8000018:	08000351 	stmdaeq	r0, {r0, r4, r6, r8, r9}
	...
 800002c:	08000351 	stmdaeq	r0, {r0, r4, r6, r8, r9}
 8000030:	08000351 	stmdaeq	r0, {r0, r4, r6, r8, r9}
 8000034:	00000000 	andeq	r0, r0, r0
 8000038:	080001f9 	stmdaeq	r0, {r0, r3, r4, r5, r6, r7, r8}
 800003c:	080003d9 	stmdaeq	r0, {r0, r3, r4, r6, r7, r8, r9}
 8000040:	08000351 	stmdaeq	r0, {r0, r4, r6, r8, r9}
 8000044:	08000351 	stmdaeq	r0, {r0, r4, r6, r8, r9}
 8000048:	08000351 	stmdaeq	r0, {r0, r4, r6, r8, r9}
 800004c:	08000351 	stmdaeq	r0, {r0, r4, r6, r8, r9}
 8000050:	08000351 	stmdaeq	r0, {r0, r4, r6, r8, r9}
 8000054:	08000351 	stmdaeq	r0, {r0, r4, r6, r8, r9}
 8000058:	08000351 	stmdaeq	r0, {r0, r4, r6, r8, r9}
 800005c:	08000351 	stmdaeq	r0, {r0, r4, r6, r8, r9}
 8000060:	08000351 	stmdaeq	r0, {r0, r4, r6, r8, r9}
 8000064:	08000351 	stmdaeq	r0, {r0, r4, r6, r8, r9}
 8000068:	08000351 	stmdaeq	r0, {r0, r4, r6, r8, r9}
 800006c:	08000351 	stmdaeq	r0, {r0, r4, r6, r8, r9}
 8000070:	08000351 	stmdaeq	r0, {r0, r4, r6, r8, r9}
 8000074:	08000351 	stmdaeq	r0, {r0, r4, r6, r8, r9}
 8000078:	08000351 	stmdaeq	r0, {r0, r4, r6, r8, r9}
 800007c:	08000351 	stmdaeq	r0, {r0, r4, r6, r8, r9}
 8000080:	08000351 	stmdaeq	r0, {r0, r4, r6, r8, r9}
 8000084:	08000351 	stmdaeq	r0, {r0, r4, r6, r8, r9}
 8000088:	08000351 	stmdaeq	r0, {r0, r4, r6, r8, r9}
 800008c:	08000351 	stmdaeq	r0, {r0, r4, r6, r8, r9}
 8000090:	08000351 	stmdaeq	r0, {r0, r4, r6, r8, r9}
 8000094:	08000351 	stmdaeq	r0, {r0, r4, r6, r8, r9}
 8000098:	08000351 	stmdaeq	r0, {r0, r4, r6, r8, r9}
 800009c:	08000351 	stmdaeq	r0, {r0, r4, r6, r8, r9}
 80000a0:	08000351 	stmdaeq	r0, {r0, r4, r6, r8, r9}
 80000a4:	08000351 	stmdaeq	r0, {r0, r4, r6, r8, r9}
 80000a8:	08000351 	stmdaeq	r0, {r0, r4, r6, r8, r9}
 80000ac:	08000351 	stmdaeq	r0, {r0, r4, r6, r8, r9}
 80000b0:	08000351 	stmdaeq	r0, {r0, r4, r6, r8, r9}
 80000b4:	08000351 	stmdaeq	r0, {r0, r4, r6, r8, r9}
 80000b8:	08000351 	stmdaeq	r0, {r0, r4, r6, r8, r9}
 80000bc:	08000351 	stmdaeq	r0, {r0, r4, r6, r8, r9}
 80000c0:	08000351 	stmdaeq	r0, {r0, r4, r6, r8, r9}
 80000c4:	08000351 	stmdaeq	r0, {r0, r4, r6, r8, r9}
 80000c8:	08000351 	stmdaeq	r0, {r0, r4, r6, r8, r9}
 80000cc:	08000351 	stmdaeq	r0, {r0, r4, r6, r8, r9}
 80000d0:	08000351 	stmdaeq	r0, {r0, r4, r6, r8, r9}
 80000d4:	08000351 	stmdaeq	r0, {r0, r4, r6, r8, r9}
 80000d8:	08000351 	stmdaeq	r0, {r0, r4, r6, r8, r9}
 80000dc:	08000351 	stmdaeq	r0, {r0, r4, r6, r8, r9}
 80000e0:	08000351 	stmdaeq	r0, {r0, r4, r6, r8, r9}
 80000e4:	08000351 	stmdaeq	r0, {r0, r4, r6, r8, r9}
 80000e8:	08000351 	stmdaeq	r0, {r0, r4, r6, r8, r9}
 80000ec:	08000351 	stmdaeq	r0, {r0, r4, r6, r8, r9}
 80000f0:	08000351 	stmdaeq	r0, {r0, r4, r6, r8, r9}
 80000f4:	08000351 	stmdaeq	r0, {r0, r4, r6, r8, r9}
 80000f8:	08000351 	stmdaeq	r0, {r0, r4, r6, r8, r9}
 80000fc:	08000351 	stmdaeq	r0, {r0, r4, r6, r8, r9}
 8000100:	08000351 	stmdaeq	r0, {r0, r4, r6, r8, r9}
 8000104:	08000351 	stmdaeq	r0, {r0, r4, r6, r8, r9}
 8000108:	08000351 	stmdaeq	r0, {r0, r4, r6, r8, r9}
 800010c:	08000351 	stmdaeq	r0, {r0, r4, r6, r8, r9}
 8000110:	08000351 	stmdaeq	r0, {r0, r4, r6, r8, r9}
 8000114:	08000351 	stmdaeq	r0, {r0, r4, r6, r8, r9}
 8000118:	08000351 	stmdaeq	r0, {r0, r4, r6, r8, r9}
 800011c:	08000351 	stmdaeq	r0, {r0, r4, r6, r8, r9}
	...

Disassembly of section .text:

08000150 <thread_two_fxn>:
 8000150:	b5f8      	push	{r3, r4, r5, r6, r7, lr}
 8000152:	f000 f94b 	bl	80003ec <get_tick_count>
 8000156:	4e0c      	ldr	r6, [pc, #48]	@ (8000188 <thread_two_fxn+0x38>)
 8000158:	4604      	mov	r4, r0
 800015a:	2700      	movs	r7, #0
 800015c:	4621      	mov	r1, r4
 800015e:	200a      	movs	r0, #10
 8000160:	f000 f960 	bl	8000424 <has_time_passed>
 8000164:	4605      	mov	r5, r0
 8000166:	2800      	cmp	r0, #0
 8000168:	d0f8      	beq.n	800015c <thread_two_fxn+0xc>
 800016a:	f000 f93f 	bl	80003ec <get_tick_count>
 800016e:	69b3      	ldr	r3, [r6, #24]
 8000170:	4604      	mov	r4, r0
 8000172:	b12f      	cbz	r7, 8000180 <thread_two_fxn+0x30>
 8000174:	f443 1300 	orr.w	r3, r3, #2097152	@ 0x200000
 8000178:	61b3      	str	r3, [r6, #24]
 800017a:	2500      	movs	r5, #0
 800017c:	462f      	mov	r7, r5
 800017e:	e7ed      	b.n	800015c <thread_two_fxn+0xc>
 8000180:	f043 0320 	orr.w	r3, r3, #32
 8000184:	61b3      	str	r3, [r6, #24]
 8000186:	e7f9      	b.n	800017c <thread_two_fxn+0x2c>
 8000188:	40020000 	andmi	r0, r2, r0

0800018c <thread_one_fxn>:
 800018c:	b508      	push	{r3, lr}
 800018e:	f7ff ffdf 	bl	8000150 <thread_two_fxn>
 8000192:	bf00      	nop

08000194 <neo_kernel_init>:
 8000194:	b508      	push	{r3, lr}
 8000196:	2064      	movs	r0, #100	@ 0x64
 8000198:	f000 f94e 	bl	8000438 <setup_systick>
 800019c:	b672      	cpsid	i
 800019e:	4b04      	ldr	r3, [pc, #16]	@ (80001b0 <neo_kernel_init+0x1c>)
 80001a0:	22f0      	movs	r2, #240	@ 0xf0
 80001a2:	f883 2022 	strb.w	r2, [r3, #34]	@ 0x22
 80001a6:	2200      	movs	r2, #0
 80001a8:	f883 2023 	strb.w	r2, [r3, #35]	@ 0x23
 80001ac:	b662      	cpsie	i
 80001ae:	bd08      	pop	{r3, pc}
 80001b0:	e000ed00 	and	lr, r0, r0, lsl #26

080001b4 <thread_handler>:
 80001b4:	b672      	cpsid	i
 80001b6:	485e      	ldr	r0, [pc, #376]	@ (8000330 <neo_start_threads+0x10>)
 80001b8:	6800      	ldr	r0, [r0, #0]
 80001ba:	b662      	cpsie	i
 80001bc:	2800      	cmp	r0, #0
 80001be:	d016      	beq.n	80001ee <thread_time_slice_not_expired>
 80001c0:	b672      	cpsid	i
 80001c2:	485c      	ldr	r0, [pc, #368]	@ (8000334 <neo_start_threads+0x14>)
 80001c4:	6800      	ldr	r0, [r0, #0]
 80001c6:	b662      	cpsie	i
 80001c8:	2801      	cmp	r0, #1
 80001ca:	d009      	beq.n	80001e0 <first_time_thread_handler>
 80001cc:	b672      	cpsid	i
 80001ce:	495a      	ldr	r1, [pc, #360]	@ (8000338 <neo_start_threads+0x18>)
 80001d0:	6809      	ldr	r1, [r1, #0]
 80001d2:	485a      	ldr	r0, [pc, #360]	@ (800033c <neo_start_threads+0x1c>)
 80001d4:	6802      	ldr	r2, [r0, #0]
 80001d6:	b662      	cpsie	i
 80001d8:	eba1 0102 	sub.w	r1, r1, r2
 80001dc:	290a      	cmp	r1, #10
 80001de:	db06      	blt.n	80001ee <thread_time_slice_not_expired>

080001e0 <first_time_thread_handler>:
 80001e0:	b672      	cpsid	i
 80001e2:	4a04      	ldr	r2, [pc, #16]	@ (80001f4 <thread_time_slice_not_expired+0x6>)
 80001e4:	6853      	ldr	r3, [r2, #4]
 80001e6:	f043 5380 	orr.w	r3, r3, #268435456	@ 0x10000000
 80001ea:	6053      	str	r3, [r2, #4]
 80001ec:	b662      	cpsie	i

080001ee <thread_time_slice_not_expired>:
 80001ee:	f000 b8fc 	b.w	80003ea <exit_from_interrupt_>
 80001f2:	bf00      	nop
 80001f4:	e000ed00 	and	lr, r0, r0, lsl #26

080001f8 <PendSV_handler>:
 80001f8:	b672      	cpsid	i
 80001fa:	484e      	ldr	r0, [pc, #312]	@ (8000334 <neo_start_threads+0x14>)
 80001fc:	6800      	ldr	r0, [r0, #0]
 80001fe:	b662      	cpsie	i
 8000200:	2801      	cmp	r0, #1
 8000202:	d001      	beq.n	8000208 <skip_save>
 8000204:	e92d 0ff0 	stmdb	sp!, {r4, r5, r6, r7, r8, r9, sl, fp}

08000208 <skip_save>:
 8000208:	f000 b826 	b.w	8000258 <neo_thread_scheduler>

0800020c <return_from_scheduler>:
 800020c:	f000 b803 	b.w	8000216 <neo_context_switch>

08000210 <switch>:
 8000210:	e8bd 0ff0 	ldmia.w	sp!, {r4, r5, r6, r7, r8, r9, sl, fp}
 8000214:	4770      	bx	lr

08000216 <neo_context_switch>:
 8000216:	b672      	cpsid	i
 8000218:	4849      	ldr	r0, [pc, #292]	@ (8000340 <neo_start_threads+0x20>)
 800021a:	6800      	ldr	r0, [r0, #0]
 800021c:	2800      	cmp	r0, #0
 800021e:	d019      	beq.n	8000254 <first_time_switch+0x1a>
 8000220:	4844      	ldr	r0, [pc, #272]	@ (8000334 <neo_start_threads+0x14>)
 8000222:	6800      	ldr	r0, [r0, #0]
 8000224:	2801      	cmp	r0, #1
 8000226:	d008      	beq.n	800023a <first_time_switch>
 8000228:	4846      	ldr	r0, [pc, #280]	@ (8000344 <neo_start_threads+0x24>)
 800022a:	4947      	ldr	r1, [pc, #284]	@ (8000348 <neo_start_threads+0x28>)
 800022c:	6809      	ldr	r1, [r1, #0]
 800022e:	ea4f 0181 	mov.w	r1, r1, lsl #2
 8000232:	4408      	add	r0, r1
 8000234:	6800      	ldr	r0, [r0, #0]
 8000236:	f8c0 d000 	str.w	sp, [r0]

0800023a <first_time_switch>:
 800023a:	4842      	ldr	r0, [pc, #264]	@ (8000344 <neo_start_threads+0x24>)
 800023c:	4943      	ldr	r1, [pc, #268]	@ (800034c <neo_start_threads+0x2c>)
 800023e:	6809      	ldr	r1, [r1, #0]
 8000240:	ea4f 0181 	mov.w	r1, r1, lsl #2
 8000244:	4408      	add	r0, r1
 8000246:	6800      	ldr	r0, [r0, #0]
 8000248:	f8d0 d000 	ldr.w	sp, [r0]
 800024c:	4839      	ldr	r0, [pc, #228]	@ (8000334 <neo_start_threads+0x14>)
 800024e:	f04f 0100 	mov.w	r1, #0
 8000252:	6001      	str	r1, [r0, #0]
 8000254:	b662      	cpsie	i
 8000256:	e7db      	b.n	8000210 <switch>

08000258 <neo_thread_scheduler>:
 8000258:	b672      	cpsid	i
 800025a:	4839      	ldr	r0, [pc, #228]	@ (8000340 <neo_start_threads+0x20>)
 800025c:	6800      	ldr	r0, [r0, #0]
 800025e:	2800      	cmp	r0, #0
 8000260:	d025      	beq.n	80002ae <enable_and_return>
 8000262:	4834      	ldr	r0, [pc, #208]	@ (8000334 <neo_start_threads+0x14>)
 8000264:	6800      	ldr	r0, [r0, #0]
 8000266:	2800      	cmp	r0, #0
 8000268:	d004      	beq.n	8000274 <main_scheduling_logic>
 800026a:	4838      	ldr	r0, [pc, #224]	@ (800034c <neo_start_threads+0x2c>)
 800026c:	f04f 0100 	mov.w	r1, #0
 8000270:	6001      	str	r1, [r0, #0]
 8000272:	e01c      	b.n	80002ae <enable_and_return>

08000274 <main_scheduling_logic>:
 8000274:	4835      	ldr	r0, [pc, #212]	@ (800034c <neo_start_threads+0x2c>)
 8000276:	6801      	ldr	r1, [r0, #0]
 8000278:	4a33      	ldr	r2, [pc, #204]	@ (8000348 <neo_start_threads+0x28>)
 800027a:	6011      	str	r1, [r2, #0]
 800027c:	f101 0101 	add.w	r1, r1, #1
 8000280:	f04f 020a 	mov.w	r2, #10
 8000284:	f1a2 0201 	sub.w	r2, r2, #1
 8000288:	ea01 0102 	and.w	r1, r1, r2
 800028c:	4a2c      	ldr	r2, [pc, #176]	@ (8000340 <neo_start_threads+0x20>)
 800028e:	6812      	ldr	r2, [r2, #0]
 8000290:	4291      	cmp	r1, r2
 8000292:	db07      	blt.n	80002a4 <store_thread_index>
 8000294:	f04f 0100 	mov.w	r1, #0
 8000298:	6001      	str	r1, [r0, #0]
 800029a:	482b      	ldr	r0, [pc, #172]	@ (8000348 <neo_start_threads+0x28>)
 800029c:	f04f 0101 	mov.w	r1, #1
 80002a0:	6001      	str	r1, [r0, #0]
 80002a2:	e000      	b.n	80002a6 <update_last_thread_start_tick>

080002a4 <store_thread_index>:
 80002a4:	6001      	str	r1, [r0, #0]

080002a6 <update_last_thread_start_tick>:
 80002a6:	4824      	ldr	r0, [pc, #144]	@ (8000338 <neo_start_threads+0x18>)
 80002a8:	6801      	ldr	r1, [r0, #0]
 80002aa:	4824      	ldr	r0, [pc, #144]	@ (800033c <neo_start_threads+0x1c>)
 80002ac:	6001      	str	r1, [r0, #0]

080002ae <enable_and_return>:
 80002ae:	b662      	cpsie	i
 80002b0:	e7ac      	b.n	800020c <return_from_scheduler>

080002b2 <neo_thread_init>:
 80002b2:	b573      	push	{r0, r1, r4, r5, r6, lr}
 80002b4:	b138      	cbz	r0, 80002c6 <neo_thread_init+0x14>
 80002b6:	b131      	cbz	r1, 80002c6 <neo_thread_init+0x14>
 80002b8:	b12b      	cbz	r3, 80002c6 <neo_thread_init+0x14>
 80002ba:	b672      	cpsid	i
 80002bc:	4c17      	ldr	r4, [pc, #92]	@ (800031c <neo_thread_init+0x6a>)
 80002be:	6825      	ldr	r5, [r4, #0]
 80002c0:	2d09      	cmp	r5, #9
 80002c2:	d903      	bls.n	80002cc <neo_thread_init+0x1a>
 80002c4:	b662      	cpsie	i
 80002c6:	2000      	movs	r0, #0
 80002c8:	b002      	add	sp, #8
 80002ca:	bd70      	pop	{r4, r5, r6, pc}
 80002cc:	6825      	ldr	r5, [r4, #0]
 80002ce:	1c6e      	adds	r6, r5, #1
 80002d0:	6026      	str	r6, [r4, #0]
 80002d2:	eb04 0485 	add.w	r4, r4, r5, lsl #2
 80002d6:	6060      	str	r0, [r4, #4]
 80002d8:	b662      	cpsie	i
 80002da:	9c06      	ldr	r4, [sp, #24]
 80002dc:	4423      	add	r3, r4
 80002de:	f023 0307 	bic.w	r3, r3, #7
 80002e2:	f04f 7480 	mov.w	r4, #16777216	@ 0x1000000
 80002e6:	e943 1402 	strd	r1, r4, [r3, #-8]
 80002ea:	2100      	movs	r1, #0
 80002ec:	e943 1104 	strd	r1, r1, [r3, #-16]
 80002f0:	e943 1106 	strd	r1, r1, [r3, #-24]
 80002f4:	f843 1c1c 	str.w	r1, [r3, #-28]
 80002f8:	f1a3 0420 	sub.w	r4, r3, #32
 80002fc:	f843 2c20 	str.w	r2, [r3, #-32]
 8000300:	9101      	str	r1, [sp, #4]
 8000302:	9b01      	ldr	r3, [sp, #4]
 8000304:	2b07      	cmp	r3, #7
 8000306:	dd02      	ble.n	800030e <neo_thread_init+0x5c>
 8000308:	6004      	str	r4, [r0, #0]
 800030a:	2001      	movs	r0, #1
 800030c:	e7dc      	b.n	80002c8 <neo_thread_init+0x16>
 800030e:	9b01      	ldr	r3, [sp, #4]
 8000310:	f844 1d04 	str.w	r1, [r4, #-4]!
 8000314:	3301      	adds	r3, #1
 8000316:	9301      	str	r3, [sp, #4]
 8000318:	e7f3      	b.n	8000302 <neo_thread_init+0x50>
 800031a:	bf00      	nop
 800031c:	20000150 	andcs	r0, r0, r0, asr r1

08000320 <neo_start_threads>:
 8000320:	b672      	cpsid	i
 8000322:	4b02      	ldr	r3, [pc, #8]	@ (800032c <neo_start_threads+0xc>)
 8000324:	2201      	movs	r2, #1
 8000326:	62da      	str	r2, [r3, #44]	@ 0x2c
 8000328:	b662      	cpsie	i
 800032a:	4770      	bx	lr
 800032c:	20000150 	andcs	r0, r0, r0, asr r1
 8000330:	2000017c 	andcs	r0, r0, ip, ror r1
 8000334:	20000000 	andcs	r0, r0, r0
 8000338:	2000018c 	andcs	r0, r0, ip, lsl #3
 800033c:	20000188 	andcs	r0, r0, r8, lsl #3
 8000340:	20000150 	andcs	r0, r0, r0, asr r1
 8000344:	20000154 	andcs	r0, r0, r4, asr r1
 8000348:	20000184 	andcs	r0, r0, r4, lsl #3
 800034c:	20000180 	andcs	r0, r0, r0, lsl #3

08000350 <default_handler>:
 8000350:	f000 b830 	b.w	80003b4 <system_reset>

08000354 <reset_handler>:
 8000354:	b510      	push	{r4, lr}
 8000356:	490d      	ldr	r1, [pc, #52]	@ (800038c <reset_handler+0x38>)
 8000358:	4b0d      	ldr	r3, [pc, #52]	@ (8000390 <reset_handler+0x3c>)
 800035a:	480e      	ldr	r0, [pc, #56]	@ (8000394 <reset_handler+0x40>)
 800035c:	1a5b      	subs	r3, r3, r1
 800035e:	2200      	movs	r2, #0
 8000360:	429a      	cmp	r2, r3
 8000362:	d109      	bne.n	8000378 <reset_handler+0x24>
 8000364:	4a0c      	ldr	r2, [pc, #48]	@ (8000398 <reset_handler+0x44>)
 8000366:	4b0d      	ldr	r3, [pc, #52]	@ (800039c <reset_handler+0x48>)
 8000368:	1ad1      	subs	r1, r2, r3
 800036a:	2200      	movs	r2, #0
 800036c:	4610      	mov	r0, r2
 800036e:	428a      	cmp	r2, r1
 8000370:	d108      	bne.n	8000384 <reset_handler+0x30>
 8000372:	f000 f881 	bl	8000478 <main>
 8000376:	e7fe      	b.n	8000376 <reset_handler+0x22>
 8000378:	f810 4b01 	ldrb.w	r4, [r0], #1
 800037c:	f801 4b01 	strb.w	r4, [r1], #1
 8000380:	3201      	adds	r2, #1
 8000382:	e7ed      	b.n	8000360 <reset_handler+0xc>
 8000384:	f803 0b01 	strb.w	r0, [r3], #1
 8000388:	3201      	adds	r2, #1
 800038a:	e7f0      	b.n	800036e <reset_handler+0x1a>
 800038c:	20000000 	andcs	r0, r0, r0
 8000390:	20000004 	andcs	r0, r0, r4
 8000394:	080004b8 	stmdaeq	r0, {r3, r4, r5, r7, sl}
 8000398:	20000194 	mulcs	r0, r4, r1
 800039c:	20000004 	andcs	r0, r0, r4

080003a0 <enable_fpu>:
 80003a0:	4a03      	ldr	r2, [pc, #12]	@ (80003b0 <enable_fpu+0x10>)
 80003a2:	f8d2 3088 	ldr.w	r3, [r2, #136]	@ 0x88
 80003a6:	f443 0370 	orr.w	r3, r3, #15728640	@ 0xf00000
 80003aa:	f8c2 3088 	str.w	r3, [r2, #136]	@ 0x88
 80003ae:	4770      	bx	lr
 80003b0:	e000ed00 	and	lr, r0, r0, lsl #26

080003b4 <system_reset>:
 80003b4:	f3bf 8f4f 	dsb	sy
 80003b8:	4905      	ldr	r1, [pc, #20]	@ (80003d0 <system_reset+0x1c>)
 80003ba:	4b06      	ldr	r3, [pc, #24]	@ (80003d4 <system_reset+0x20>)
 80003bc:	68ca      	ldr	r2, [r1, #12]
 80003be:	f402 62e0 	and.w	r2, r2, #1792	@ 0x700
 80003c2:	4313      	orrs	r3, r2
 80003c4:	60cb      	str	r3, [r1, #12]
 80003c6:	f3bf 8f4f 	dsb	sy
 80003ca:	bf00      	nop
 80003cc:	e7fd      	b.n	80003ca <system_reset+0x16>
 80003ce:	bf00      	nop
 80003d0:	e000ed00 	and	lr, r0, r0, lsl #26
 80003d4:	05fa0004 	ldrbeq	r0, [sl, #4]!

080003d8 <SysTick_handler>:
 80003d8:	b672      	cpsid	i
 80003da:	4826      	ldr	r0, [pc, #152]	@ (8000474 <default_thread_handler+0x4>)
 80003dc:	6801      	ldr	r1, [r0, #0]
 80003de:	f101 0101 	add.w	r1, r1, #1
 80003e2:	6001      	str	r1, [r0, #0]
 80003e4:	b662      	cpsie	i
 80003e6:	f7ff bee5 	b.w	80001b4 <thread_handler>

080003ea <exit_from_interrupt_>:
 80003ea:	4770      	bx	lr

080003ec <get_tick_count>:
 80003ec:	b672      	cpsid	i
 80003ee:	4b02      	ldr	r3, [pc, #8]	@ (80003f8 <get_tick_count+0xc>)
 80003f0:	6818      	ldr	r0, [r3, #0]
 80003f2:	b662      	cpsie	i
 80003f4:	4770      	bx	lr
 80003f6:	bf00      	nop
 80003f8:	20000190 	mulcs	r0, r0, r1

080003fc <LED_setup>:
 80003fc:	4a07      	ldr	r2, [pc, #28]	@ (800041c <LED_setup+0x20>)
 80003fe:	6b13      	ldr	r3, [r2, #48]	@ 0x30
 8000400:	f043 0301 	orr.w	r3, r3, #1
 8000404:	6313      	str	r3, [r2, #48]	@ 0x30
 8000406:	4b06      	ldr	r3, [pc, #24]	@ (8000420 <LED_setup+0x24>)
 8000408:	681a      	ldr	r2, [r3, #0]
 800040a:	f442 6280 	orr.w	r2, r2, #1024	@ 0x400
 800040e:	601a      	str	r2, [r3, #0]
 8000410:	681a      	ldr	r2, [r3, #0]
 8000412:	f422 6200 	bic.w	r2, r2, #2048	@ 0x800
 8000416:	601a      	str	r2, [r3, #0]
 8000418:	4770      	bx	lr
 800041a:	bf00      	nop
 800041c:	40023800 	andmi	r3, r2, r0, lsl #16
 8000420:	40020000 	andmi	r0, r2, r0

08000424 <has_time_passed>:
 8000424:	b508      	push	{r3, lr}
 8000426:	4602      	mov	r2, r0
 8000428:	f7ff ffe0 	bl	80003ec <get_tick_count>
 800042c:	1a40      	subs	r0, r0, r1
 800042e:	4290      	cmp	r0, r2
 8000430:	bf34      	ite	cc
 8000432:	2000      	movcc	r0, #0
 8000434:	2001      	movcs	r0, #1
 8000436:	bd08      	pop	{r3, pc}

08000438 <setup_systick>:
 8000438:	f04f 22e0 	mov.w	r2, #3758153728	@ 0xe000e000
 800043c:	f44f 717a 	mov.w	r1, #1000	@ 0x3e8
 8000440:	6913      	ldr	r3, [r2, #16]
 8000442:	f043 0301 	orr.w	r3, r3, #1
 8000446:	6113      	str	r3, [r2, #16]
 8000448:	6913      	ldr	r3, [r2, #16]
 800044a:	f043 0304 	orr.w	r3, r3, #4
 800044e:	6113      	str	r3, [r2, #16]
 8000450:	6913      	ldr	r3, [r2, #16]
 8000452:	f043 0302 	orr.w	r3, r3, #2
 8000456:	6113      	str	r3, [r2, #16]
 8000458:	4b04      	ldr	r3, [pc, #16]	@ (800046c <setup_systick+0x34>)
 800045a:	4343      	muls	r3, r0
 800045c:	fbb3 f3f1 	udiv	r3, r3, r1
 8000460:	3b01      	subs	r3, #1
 8000462:	f023 437f 	bic.w	r3, r3, #4278190080	@ 0xff000000
 8000466:	6153      	str	r3, [r2, #20]
 8000468:	4770      	bx	lr
 800046a:	bf00      	nop
 800046c:	00f42400 	rscseq	r2, r4, r0, lsl #8

08000470 <default_thread_handler>:
 8000470:	4770      	bx	lr
 8000472:	01900000 	orrseq	r0, r0, r0
 8000476:	 	strlt	r2, [r7, #-0]

08000478 <main>:
 8000478:	b507      	push	{r0, r1, r2, lr}
 800047a:	f7ff ffbf 	bl	80003fc <LED_setup>
 800047e:	f7ff fe89 	bl	8000194 <neo_kernel_init>
 8000482:	4b09      	ldr	r3, [pc, #36]	@ (80004a8 <main+0x30>)
 8000484:	4909      	ldr	r1, [pc, #36]	@ (80004ac <main+0x34>)
 8000486:	24a0      	movs	r4, #160	@ 0xa0
 8000488:	2200      	movs	r2, #0
 800048a:	1918      	adds	r0, r3, r4
 800048c:	9400      	str	r4, [sp, #0]
 800048e:	f7ff ff10 	bl	80002b2 <neo_thread_init>
 8000492:	4b07      	ldr	r3, [pc, #28]	@ (80004b0 <main+0x38>)
 8000494:	4907      	ldr	r1, [pc, #28]	@ (80004b4 <main+0x3c>)
 8000496:	9400      	str	r4, [sp, #0]
 8000498:	2200      	movs	r2, #0
 800049a:	1918      	adds	r0, r3, r4
 800049c:	f7ff ff09 	bl	80002b2 <neo_thread_init>
 80004a0:	f7ff ff3e 	bl	8000320 <neo_start_threads>
 80004a4:	e7fe      	b.n	80004a4 <main+0x2c>
 80004a6:	bf00      	nop
 80004a8:	20000004 	andcs	r0, r0, r4
 80004ac:	0800018d 	stmdaeq	r0, {r0, r2, r3, r7, r8}
 80004b0:	200000a8 	andcs	r0, r0, r8, lsr #1
 80004b4:	08000151 	stmdaeq	r0, {r0, r4, r6, r8}

Disassembly of section .data:

20000000 <is_first_time>:
20000000:	00000001 	andeq	r0, r0, r1
