
binaries/output.elf:     file format elf32-littlearm


Disassembly of section .isr_vector:

08000000 <vectors>:
 8000000:	20018000 	andcs	r8, r1, r0
 8000004:	08000235 	stmdaeq	r0, {r0, r2, r4, r5, r9}
 8000008:	08000231 	stmdaeq	r0, {r0, r4, r5, r9}
 800000c:	08000231 	stmdaeq	r0, {r0, r4, r5, r9}
 8000010:	08000231 	stmdaeq	r0, {r0, r4, r5, r9}
 8000014:	08000231 	stmdaeq	r0, {r0, r4, r5, r9}
 8000018:	08000231 	stmdaeq	r0, {r0, r4, r5, r9}
	...
 800002c:	08000231 	stmdaeq	r0, {r0, r4, r5, r9}
 8000030:	08000231 	stmdaeq	r0, {r0, r4, r5, r9}
 8000034:	00000000 	andeq	r0, r0, r0
 8000038:	08000231 	stmdaeq	r0, {r0, r4, r5, r9}
 800003c:	080002b9 	stmdaeq	r0, {r0, r3, r4, r5, r7, r9}
 8000040:	08000231 	stmdaeq	r0, {r0, r4, r5, r9}
 8000044:	08000231 	stmdaeq	r0, {r0, r4, r5, r9}
 8000048:	08000231 	stmdaeq	r0, {r0, r4, r5, r9}
 800004c:	08000231 	stmdaeq	r0, {r0, r4, r5, r9}
 8000050:	08000231 	stmdaeq	r0, {r0, r4, r5, r9}
 8000054:	08000231 	stmdaeq	r0, {r0, r4, r5, r9}
 8000058:	08000231 	stmdaeq	r0, {r0, r4, r5, r9}
 800005c:	08000231 	stmdaeq	r0, {r0, r4, r5, r9}
 8000060:	08000231 	stmdaeq	r0, {r0, r4, r5, r9}
 8000064:	08000231 	stmdaeq	r0, {r0, r4, r5, r9}
 8000068:	08000231 	stmdaeq	r0, {r0, r4, r5, r9}
 800006c:	08000231 	stmdaeq	r0, {r0, r4, r5, r9}
 8000070:	08000231 	stmdaeq	r0, {r0, r4, r5, r9}
 8000074:	08000231 	stmdaeq	r0, {r0, r4, r5, r9}
 8000078:	08000231 	stmdaeq	r0, {r0, r4, r5, r9}
 800007c:	08000231 	stmdaeq	r0, {r0, r4, r5, r9}
 8000080:	08000231 	stmdaeq	r0, {r0, r4, r5, r9}
 8000084:	08000231 	stmdaeq	r0, {r0, r4, r5, r9}
 8000088:	08000231 	stmdaeq	r0, {r0, r4, r5, r9}
 800008c:	08000231 	stmdaeq	r0, {r0, r4, r5, r9}
 8000090:	08000231 	stmdaeq	r0, {r0, r4, r5, r9}
 8000094:	08000231 	stmdaeq	r0, {r0, r4, r5, r9}
 8000098:	08000231 	stmdaeq	r0, {r0, r4, r5, r9}
 800009c:	08000231 	stmdaeq	r0, {r0, r4, r5, r9}
 80000a0:	08000231 	stmdaeq	r0, {r0, r4, r5, r9}
 80000a4:	08000231 	stmdaeq	r0, {r0, r4, r5, r9}
 80000a8:	08000231 	stmdaeq	r0, {r0, r4, r5, r9}
 80000ac:	08000231 	stmdaeq	r0, {r0, r4, r5, r9}
 80000b0:	08000231 	stmdaeq	r0, {r0, r4, r5, r9}
 80000b4:	08000231 	stmdaeq	r0, {r0, r4, r5, r9}
 80000b8:	08000231 	stmdaeq	r0, {r0, r4, r5, r9}
 80000bc:	08000231 	stmdaeq	r0, {r0, r4, r5, r9}
 80000c0:	08000231 	stmdaeq	r0, {r0, r4, r5, r9}
 80000c4:	08000231 	stmdaeq	r0, {r0, r4, r5, r9}
 80000c8:	08000231 	stmdaeq	r0, {r0, r4, r5, r9}
 80000cc:	08000231 	stmdaeq	r0, {r0, r4, r5, r9}
 80000d0:	08000231 	stmdaeq	r0, {r0, r4, r5, r9}
 80000d4:	08000231 	stmdaeq	r0, {r0, r4, r5, r9}
 80000d8:	08000231 	stmdaeq	r0, {r0, r4, r5, r9}
 80000dc:	08000231 	stmdaeq	r0, {r0, r4, r5, r9}
 80000e0:	08000231 	stmdaeq	r0, {r0, r4, r5, r9}
 80000e4:	08000231 	stmdaeq	r0, {r0, r4, r5, r9}
 80000e8:	08000231 	stmdaeq	r0, {r0, r4, r5, r9}
 80000ec:	08000231 	stmdaeq	r0, {r0, r4, r5, r9}
 80000f0:	08000231 	stmdaeq	r0, {r0, r4, r5, r9}
 80000f4:	08000231 	stmdaeq	r0, {r0, r4, r5, r9}
 80000f8:	08000231 	stmdaeq	r0, {r0, r4, r5, r9}
 80000fc:	08000231 	stmdaeq	r0, {r0, r4, r5, r9}
 8000100:	08000231 	stmdaeq	r0, {r0, r4, r5, r9}
 8000104:	08000231 	stmdaeq	r0, {r0, r4, r5, r9}
 8000108:	08000231 	stmdaeq	r0, {r0, r4, r5, r9}
 800010c:	08000231 	stmdaeq	r0, {r0, r4, r5, r9}
 8000110:	08000231 	stmdaeq	r0, {r0, r4, r5, r9}
 8000114:	08000231 	stmdaeq	r0, {r0, r4, r5, r9}
 8000118:	08000231 	stmdaeq	r0, {r0, r4, r5, r9}
 800011c:	08000231 	stmdaeq	r0, {r0, r4, r5, r9}
	...

Disassembly of section .text:

08000150 <thread_two_fxn>:
 8000150:	b5f8      	push	{r3, r4, r5, r6, r7, lr}
 8000152:	f000 f8b8 	bl	80002c6 <get_tick_count>
 8000156:	4e0c      	ldr	r6, [pc, #48]	@ (8000188 <thread_two_fxn+0x38>)
 8000158:	4604      	mov	r4, r0
 800015a:	2700      	movs	r7, #0
 800015c:	480b      	ldr	r0, [pc, #44]	@ (800018c <thread_two_fxn+0x3c>)
 800015e:	4621      	mov	r1, r4
 8000160:	f000 f8cc 	bl	80002fc <has_time_passed>
 8000164:	4605      	mov	r5, r0
 8000166:	2800      	cmp	r0, #0
 8000168:	d0f8      	beq.n	800015c <thread_two_fxn+0xc>
 800016a:	f000 f8ac 	bl	80002c6 <get_tick_count>
 800016e:	69b3      	ldr	r3, [r6, #24]
 8000170:	4604      	mov	r4, r0
 8000172:	b12f      	cbz	r7, 8000180 <thread_two_fxn+0x30>
 8000174:	f443 1300 	orr.w	r3, r3, #2097152	@ 0x200000
 8000178:	61b3      	str	r3, [r6, #24]
 800017a:	2500      	movs	r5, #0
 800017c:	462f      	mov	r7, r5
 800017e:	e7ed      	b.n	800015c <thread_two_fxn+0xc>
 8000180:	f043 0320 	orr.w	r3, r3, #32
 8000184:	61b3      	str	r3, [r6, #24]
 8000186:	e7f9      	b.n	800017c <thread_two_fxn+0x2c>
 8000188:	40020000 	andmi	r0, r2, r0
 800018c:	000186a0 	andeq	r8, r1, r0, lsr #13

08000190 <thread_one_fxn>:
 8000190:	b5f8      	push	{r3, r4, r5, r6, r7, lr}
 8000192:	f000 f898 	bl	80002c6 <get_tick_count>
 8000196:	4e0c      	ldr	r6, [pc, #48]	@ (80001c8 <thread_one_fxn+0x38>)
 8000198:	4604      	mov	r4, r0
 800019a:	2700      	movs	r7, #0
 800019c:	4621      	mov	r1, r4
 800019e:	2064      	movs	r0, #100	@ 0x64
 80001a0:	f000 f8ac 	bl	80002fc <has_time_passed>
 80001a4:	4605      	mov	r5, r0
 80001a6:	2800      	cmp	r0, #0
 80001a8:	d0f8      	beq.n	800019c <thread_one_fxn+0xc>
 80001aa:	f000 f88c 	bl	80002c6 <get_tick_count>
 80001ae:	69b3      	ldr	r3, [r6, #24]
 80001b0:	4604      	mov	r4, r0
 80001b2:	b12f      	cbz	r7, 80001c0 <thread_one_fxn+0x30>
 80001b4:	f443 1300 	orr.w	r3, r3, #2097152	@ 0x200000
 80001b8:	61b3      	str	r3, [r6, #24]
 80001ba:	2500      	movs	r5, #0
 80001bc:	462f      	mov	r7, r5
 80001be:	e7ed      	b.n	800019c <thread_one_fxn+0xc>
 80001c0:	f043 0320 	orr.w	r3, r3, #32
 80001c4:	61b3      	str	r3, [r6, #24]
 80001c6:	e7f9      	b.n	80001bc <thread_one_fxn+0x2c>
 80001c8:	40020000 	andmi	r0, r2, r0

080001cc <thread_handler>:
 80001cc:	4a05      	ldr	r2, [pc, #20]	@ (80001e4 <_exit_run+0x4>)
 80001ce:	6811      	ldr	r1, [r2, #0]
 80001d0:	2901      	cmp	r1, #1
 80001d2:	d005      	beq.n	80001e0 <_exit_run>
 80001d4:	4804      	ldr	r0, [pc, #16]	@ (80001e8 <_exit_run+0x8>)
 80001d6:	f8d0 d000 	ldr.w	sp, [r0]
 80001da:	f04f 0301 	mov.w	r3, #1
 80001de:	6013      	str	r3, [r2, #0]

080001e0 <_exit_run>:
 80001e0:	4770      	bx	lr
 80001e2:	01a00000 	moveq	r0, r0
 80001e6:	00002000 	andeq	r2, r0, r0
 80001ea:	 	ldrlt	r2, [r0, #-0]

080001ec <init_thread>:
 80001ec:	b510      	push	{r4, lr}
 80001ee:	4c0f      	ldr	r4, [pc, #60]	@ (800022c <init_thread+0x40>)
 80001f0:	7823      	ldrb	r3, [r4, #0]
 80001f2:	2b03      	cmp	r3, #3
 80001f4:	d818      	bhi.n	8000228 <init_thread+0x3c>
 80001f6:	7823      	ldrb	r3, [r4, #0]
 80001f8:	3301      	adds	r3, #1
 80001fa:	b2db      	uxtb	r3, r3
 80001fc:	7023      	strb	r3, [r4, #0]
 80001fe:	f04f 7380 	mov.w	r3, #16777216	@ 0x1000000
 8000202:	e9c0 1332 	strd	r1, r3, [r0, #200]	@ 0xc8
 8000206:	2322      	movs	r3, #34	@ 0x22
 8000208:	2111      	movs	r1, #17
 800020a:	e9c0 3130 	strd	r3, r1, [r0, #192]	@ 0xc0
 800020e:	2433      	movs	r4, #51	@ 0x33
 8000210:	2344      	movs	r3, #68	@ 0x44
 8000212:	e9c0 342e 	strd	r3, r4, [r0, #184]	@ 0xb8
 8000216:	2355      	movs	r3, #85	@ 0x55
 8000218:	f8c0 30b4 	str.w	r3, [r0, #180]	@ 0xb4
 800021c:	4603      	mov	r3, r0
 800021e:	f843 2fb0 	str.w	r2, [r3, #176]!
 8000222:	6003      	str	r3, [r0, #0]
 8000224:	2001      	movs	r0, #1
 8000226:	bd10      	pop	{r4, pc}
 8000228:	2000      	movs	r0, #0
 800022a:	e7fc      	b.n	8000226 <init_thread+0x3a>
 800022c:	200001a8 	andcs	r0, r0, r8, lsr #3

08000230 <default_handler>:
 8000230:	f000 b830 	b.w	8000294 <system_reset>

08000234 <reset_handler>:
 8000234:	b510      	push	{r4, lr}
 8000236:	490d      	ldr	r1, [pc, #52]	@ (800026c <reset_handler+0x38>)
 8000238:	4b0d      	ldr	r3, [pc, #52]	@ (8000270 <reset_handler+0x3c>)
 800023a:	480e      	ldr	r0, [pc, #56]	@ (8000274 <reset_handler+0x40>)
 800023c:	1a5b      	subs	r3, r3, r1
 800023e:	2200      	movs	r2, #0
 8000240:	429a      	cmp	r2, r3
 8000242:	d109      	bne.n	8000258 <reset_handler+0x24>
 8000244:	4a0c      	ldr	r2, [pc, #48]	@ (8000278 <reset_handler+0x44>)
 8000246:	4b0d      	ldr	r3, [pc, #52]	@ (800027c <reset_handler+0x48>)
 8000248:	1ad1      	subs	r1, r2, r3
 800024a:	2200      	movs	r2, #0
 800024c:	4610      	mov	r0, r2
 800024e:	428a      	cmp	r2, r1
 8000250:	d108      	bne.n	8000264 <reset_handler+0x30>
 8000252:	f000 f87b 	bl	800034c <main>
 8000256:	e7fe      	b.n	8000256 <reset_handler+0x22>
 8000258:	f810 4b01 	ldrb.w	r4, [r0], #1
 800025c:	f801 4b01 	strb.w	r4, [r1], #1
 8000260:	3201      	adds	r2, #1
 8000262:	e7ed      	b.n	8000240 <reset_handler+0xc>
 8000264:	f803 0b01 	strb.w	r0, [r3], #1
 8000268:	3201      	adds	r2, #1
 800026a:	e7f0      	b.n	800024e <reset_handler+0x1a>
 800026c:	20000000 	andcs	r0, r0, r0
 8000270:	20000000 	andcs	r0, r0, r0
 8000274:	08000380 	stmdaeq	r0, {r7, r8, r9}
 8000278:	200001b4 			@ <UNDEFINED> instruction: 0x200001b4
 800027c:	20000000 	andcs	r0, r0, r0

08000280 <enable_fpu>:
 8000280:	4a03      	ldr	r2, [pc, #12]	@ (8000290 <enable_fpu+0x10>)
 8000282:	f8d2 3088 	ldr.w	r3, [r2, #136]	@ 0x88
 8000286:	f443 0370 	orr.w	r3, r3, #15728640	@ 0xf00000
 800028a:	f8c2 3088 	str.w	r3, [r2, #136]	@ 0x88
 800028e:	4770      	bx	lr
 8000290:	e000ed00 	and	lr, r0, r0, lsl #26

08000294 <system_reset>:
 8000294:	f3bf 8f4f 	dsb	sy
 8000298:	4905      	ldr	r1, [pc, #20]	@ (80002b0 <system_reset+0x1c>)
 800029a:	4b06      	ldr	r3, [pc, #24]	@ (80002b4 <system_reset+0x20>)
 800029c:	68ca      	ldr	r2, [r1, #12]
 800029e:	f402 62e0 	and.w	r2, r2, #1792	@ 0x700
 80002a2:	4313      	orrs	r3, r2
 80002a4:	60cb      	str	r3, [r1, #12]
 80002a6:	f3bf 8f4f 	dsb	sy
 80002aa:	bf00      	nop
 80002ac:	e7fd      	b.n	80002aa <system_reset+0x16>
 80002ae:	bf00      	nop
 80002b0:	e000ed00 	and	lr, r0, r0, lsl #26
 80002b4:	05fa0004 	ldrbeq	r0, [sl, #4]!

080002b8 <SysTick_handler>:
 80002b8:	4823      	ldr	r0, [pc, #140]	@ (8000348 <default_thread_handler>)
 80002ba:	6801      	ldr	r1, [r0, #0]
 80002bc:	f101 0101 	add.w	r1, r1, #1
 80002c0:	6001      	str	r1, [r0, #0]
 80002c2:	f7ff bf83 	b.w	80001cc <thread_handler>

080002c6 <get_tick_count>:
 80002c6:	b672      	cpsid	i
 80002c8:	4b01      	ldr	r3, [pc, #4]	@ (80002d0 <get_tick_count+0xa>)
 80002ca:	6818      	ldr	r0, [r3, #0]
 80002cc:	b662      	cpsie	i
 80002ce:	4770      	bx	lr
 80002d0:	200001b0 			@ <UNDEFINED> instruction: 0x200001b0

080002d4 <LED_setup>:
 80002d4:	4a07      	ldr	r2, [pc, #28]	@ (80002f4 <LED_setup+0x20>)
 80002d6:	6b13      	ldr	r3, [r2, #48]	@ 0x30
 80002d8:	f043 0301 	orr.w	r3, r3, #1
 80002dc:	6313      	str	r3, [r2, #48]	@ 0x30
 80002de:	4b06      	ldr	r3, [pc, #24]	@ (80002f8 <LED_setup+0x24>)
 80002e0:	681a      	ldr	r2, [r3, #0]
 80002e2:	f442 6280 	orr.w	r2, r2, #1024	@ 0x400
 80002e6:	601a      	str	r2, [r3, #0]
 80002e8:	681a      	ldr	r2, [r3, #0]
 80002ea:	f422 6200 	bic.w	r2, r2, #2048	@ 0x800
 80002ee:	601a      	str	r2, [r3, #0]
 80002f0:	4770      	bx	lr
 80002f2:	bf00      	nop
 80002f4:	40023800 	andmi	r3, r2, r0, lsl #16
 80002f8:	40020000 	andmi	r0, r2, r0

080002fc <has_time_passed>:
 80002fc:	b508      	push	{r3, lr}
 80002fe:	4602      	mov	r2, r0
 8000300:	f7ff ffe1 	bl	80002c6 <get_tick_count>
 8000304:	1a40      	subs	r0, r0, r1
 8000306:	4290      	cmp	r0, r2
 8000308:	bf34      	ite	cc
 800030a:	2000      	movcc	r0, #0
 800030c:	2001      	movcs	r0, #1
 800030e:	bd08      	pop	{r3, pc}

08000310 <setup_systick>:
 8000310:	f04f 22e0 	mov.w	r2, #3758153728	@ 0xe000e000
 8000314:	f44f 717a 	mov.w	r1, #1000	@ 0x3e8
 8000318:	6913      	ldr	r3, [r2, #16]
 800031a:	f043 0301 	orr.w	r3, r3, #1
 800031e:	6113      	str	r3, [r2, #16]
 8000320:	6913      	ldr	r3, [r2, #16]
 8000322:	f043 0304 	orr.w	r3, r3, #4
 8000326:	6113      	str	r3, [r2, #16]
 8000328:	6913      	ldr	r3, [r2, #16]
 800032a:	f043 0302 	orr.w	r3, r3, #2
 800032e:	6113      	str	r3, [r2, #16]
 8000330:	4b04      	ldr	r3, [pc, #16]	@ (8000344 <setup_systick+0x34>)
 8000332:	4343      	muls	r3, r0
 8000334:	fbb3 f3f1 	udiv	r3, r3, r1
 8000338:	3b01      	subs	r3, #1
 800033a:	f023 437f 	bic.w	r3, r3, #4278190080	@ 0xff000000
 800033e:	6153      	str	r3, [r2, #20]
 8000340:	4770      	bx	lr
 8000342:	bf00      	nop
 8000344:	00f42400 	rscseq	r2, r4, r0, lsl #8

08000348 <default_thread_handler>:
 8000348:	200001b0 			@ <UNDEFINED> instruction: 0x200001b0

0800034c <main>:
 800034c:	b508      	push	{r3, lr}
 800034e:	f7ff ffc1 	bl	80002d4 <LED_setup>
 8000352:	2001      	movs	r0, #1
 8000354:	f7ff ffdc 	bl	8000310 <setup_systick>
 8000358:	4905      	ldr	r1, [pc, #20]	@ (8000370 <main+0x24>)
 800035a:	4806      	ldr	r0, [pc, #24]	@ (8000374 <main+0x28>)
 800035c:	2200      	movs	r2, #0
 800035e:	f7ff ff45 	bl	80001ec <init_thread>
 8000362:	4905      	ldr	r1, [pc, #20]	@ (8000378 <main+0x2c>)
 8000364:	4805      	ldr	r0, [pc, #20]	@ (800037c <main+0x30>)
 8000366:	2200      	movs	r2, #0
 8000368:	f7ff ff40 	bl	80001ec <init_thread>
 800036c:	e7fe      	b.n	800036c <main+0x20>
 800036e:	bf00      	nop
 8000370:	08000191 	stmdaeq	r0, {r0, r4, r7, r8}
 8000374:	20000000 	andcs	r0, r0, r0
 8000378:	08000151 	stmdaeq	r0, {r0, r4, r6, r8}
 800037c:	200000d0 			@ <UNDEFINED> instruction: 0x200000d0
