
binaries/output.elf:     file format elf32-littlearm


Disassembly of section .isr_vector:

08000000 <vectors>:
 8000000:	20018000 	andcs	r8, r1, r0
 8000004:	080005dd 	stmdaeq	r0, {r0, r2, r3, r4, r6, r7, r8, sl}
 8000008:	080005d9 	stmdaeq	r0, {r0, r3, r4, r6, r7, r8, sl}
 800000c:	080005d9 	stmdaeq	r0, {r0, r3, r4, r6, r7, r8, sl}
 8000010:	080005d9 	stmdaeq	r0, {r0, r3, r4, r6, r7, r8, sl}
 8000014:	080005d9 	stmdaeq	r0, {r0, r3, r4, r6, r7, r8, sl}
 8000018:	080005d9 	stmdaeq	r0, {r0, r3, r4, r6, r7, r8, sl}
	...
 800002c:	080005d9 	stmdaeq	r0, {r0, r3, r4, r6, r7, r8, sl}
 8000030:	080005d9 	stmdaeq	r0, {r0, r3, r4, r6, r7, r8, sl}
 8000034:	00000000 	andeq	r0, r0, r0
 8000038:	080002ad 	stmdaeq	r0, {r0, r2, r3, r5, r7, r9}
 800003c:	08000661 	stmdaeq	r0, {r0, r5, r6, r9, sl}
 8000040:	080005d9 	stmdaeq	r0, {r0, r3, r4, r6, r7, r8, sl}
 8000044:	080005d9 	stmdaeq	r0, {r0, r3, r4, r6, r7, r8, sl}
 8000048:	080005d9 	stmdaeq	r0, {r0, r3, r4, r6, r7, r8, sl}
 800004c:	080005d9 	stmdaeq	r0, {r0, r3, r4, r6, r7, r8, sl}
 8000050:	080005d9 	stmdaeq	r0, {r0, r3, r4, r6, r7, r8, sl}
 8000054:	080005d9 	stmdaeq	r0, {r0, r3, r4, r6, r7, r8, sl}
 8000058:	080005d9 	stmdaeq	r0, {r0, r3, r4, r6, r7, r8, sl}
 800005c:	080005d9 	stmdaeq	r0, {r0, r3, r4, r6, r7, r8, sl}
 8000060:	080005d9 	stmdaeq	r0, {r0, r3, r4, r6, r7, r8, sl}
 8000064:	080005d9 	stmdaeq	r0, {r0, r3, r4, r6, r7, r8, sl}
 8000068:	080005d9 	stmdaeq	r0, {r0, r3, r4, r6, r7, r8, sl}
 800006c:	080005d9 	stmdaeq	r0, {r0, r3, r4, r6, r7, r8, sl}
 8000070:	080005d9 	stmdaeq	r0, {r0, r3, r4, r6, r7, r8, sl}
 8000074:	080005d9 	stmdaeq	r0, {r0, r3, r4, r6, r7, r8, sl}
 8000078:	080005d9 	stmdaeq	r0, {r0, r3, r4, r6, r7, r8, sl}
 800007c:	080005d9 	stmdaeq	r0, {r0, r3, r4, r6, r7, r8, sl}
 8000080:	080005d9 	stmdaeq	r0, {r0, r3, r4, r6, r7, r8, sl}
 8000084:	080005d9 	stmdaeq	r0, {r0, r3, r4, r6, r7, r8, sl}
 8000088:	080005d9 	stmdaeq	r0, {r0, r3, r4, r6, r7, r8, sl}
 800008c:	080005d9 	stmdaeq	r0, {r0, r3, r4, r6, r7, r8, sl}
 8000090:	080005d9 	stmdaeq	r0, {r0, r3, r4, r6, r7, r8, sl}
 8000094:	080005d9 	stmdaeq	r0, {r0, r3, r4, r6, r7, r8, sl}
 8000098:	080005d9 	stmdaeq	r0, {r0, r3, r4, r6, r7, r8, sl}
 800009c:	080005d9 	stmdaeq	r0, {r0, r3, r4, r6, r7, r8, sl}
 80000a0:	080005d9 	stmdaeq	r0, {r0, r3, r4, r6, r7, r8, sl}
 80000a4:	080005d9 	stmdaeq	r0, {r0, r3, r4, r6, r7, r8, sl}
 80000a8:	080005d9 	stmdaeq	r0, {r0, r3, r4, r6, r7, r8, sl}
 80000ac:	080005d9 	stmdaeq	r0, {r0, r3, r4, r6, r7, r8, sl}
 80000b0:	080005d9 	stmdaeq	r0, {r0, r3, r4, r6, r7, r8, sl}
 80000b4:	080005d9 	stmdaeq	r0, {r0, r3, r4, r6, r7, r8, sl}
 80000b8:	080005d9 	stmdaeq	r0, {r0, r3, r4, r6, r7, r8, sl}
 80000bc:	080005d9 	stmdaeq	r0, {r0, r3, r4, r6, r7, r8, sl}
 80000c0:	080005d9 	stmdaeq	r0, {r0, r3, r4, r6, r7, r8, sl}
 80000c4:	080005d9 	stmdaeq	r0, {r0, r3, r4, r6, r7, r8, sl}
 80000c8:	080005d9 	stmdaeq	r0, {r0, r3, r4, r6, r7, r8, sl}
 80000cc:	080005d9 	stmdaeq	r0, {r0, r3, r4, r6, r7, r8, sl}
 80000d0:	080005d9 	stmdaeq	r0, {r0, r3, r4, r6, r7, r8, sl}
 80000d4:	080005d9 	stmdaeq	r0, {r0, r3, r4, r6, r7, r8, sl}
 80000d8:	080005d9 	stmdaeq	r0, {r0, r3, r4, r6, r7, r8, sl}
 80000dc:	080005d9 	stmdaeq	r0, {r0, r3, r4, r6, r7, r8, sl}
 80000e0:	080005d9 	stmdaeq	r0, {r0, r3, r4, r6, r7, r8, sl}
 80000e4:	080005d9 	stmdaeq	r0, {r0, r3, r4, r6, r7, r8, sl}
 80000e8:	080005d9 	stmdaeq	r0, {r0, r3, r4, r6, r7, r8, sl}
 80000ec:	080005d9 	stmdaeq	r0, {r0, r3, r4, r6, r7, r8, sl}
 80000f0:	080005d9 	stmdaeq	r0, {r0, r3, r4, r6, r7, r8, sl}
 80000f4:	080005d9 	stmdaeq	r0, {r0, r3, r4, r6, r7, r8, sl}
 80000f8:	080005d9 	stmdaeq	r0, {r0, r3, r4, r6, r7, r8, sl}
 80000fc:	080005d9 	stmdaeq	r0, {r0, r3, r4, r6, r7, r8, sl}
 8000100:	080005d9 	stmdaeq	r0, {r0, r3, r4, r6, r7, r8, sl}
 8000104:	080005d9 	stmdaeq	r0, {r0, r3, r4, r6, r7, r8, sl}
 8000108:	080005d9 	stmdaeq	r0, {r0, r3, r4, r6, r7, r8, sl}
 800010c:	080005d9 	stmdaeq	r0, {r0, r3, r4, r6, r7, r8, sl}
 8000110:	080005d9 	stmdaeq	r0, {r0, r3, r4, r6, r7, r8, sl}
 8000114:	080005d9 	stmdaeq	r0, {r0, r3, r4, r6, r7, r8, sl}
 8000118:	080005d9 	stmdaeq	r0, {r0, r3, r4, r6, r7, r8, sl}
 800011c:	080005d9 	stmdaeq	r0, {r0, r3, r4, r6, r7, r8, sl}
	...

Disassembly of section .text:

08000150 <thread_two_fxn>:
 8000150:	e92d 41f0 	stmdb	sp!, {r4, r5, r6, r7, r8, lr}
 8000154:	f000 fa8e 	bl	8000674 <get_tick_count>
 8000158:	4d10      	ldr	r5, [pc, #64]	@ (800019c <thread_two_fxn+0x4c>)
 800015a:	4604      	mov	r4, r0
 800015c:	2700      	movs	r7, #0
 800015e:	f04f 0801 	mov.w	r8, #1
 8000162:	4621      	mov	r1, r4
 8000164:	2005      	movs	r0, #5
 8000166:	f000 faa1 	bl	80006ac <has_time_passed>
 800016a:	4606      	mov	r6, r0
 800016c:	b140      	cbz	r0, 8000180 <thread_two_fxn+0x30>
 800016e:	f000 fa81 	bl	8000674 <get_tick_count>
 8000172:	69ab      	ldr	r3, [r5, #24]
 8000174:	4604      	mov	r4, r0
 8000176:	b167      	cbz	r7, 8000192 <thread_two_fxn+0x42>
 8000178:	f443 1300 	orr.w	r3, r3, #2097152	@ 0x200000
 800017c:	61ab      	str	r3, [r5, #24]
 800017e:	2700      	movs	r7, #0
 8000180:	f1b8 0f00 	cmp.w	r8, #0
 8000184:	d002      	beq.n	800018c <thread_two_fxn+0x3c>
 8000186:	201e      	movs	r0, #30
 8000188:	f000 f9e4 	bl	8000554 <neo_thread_sleep>
 800018c:	f04f 0800 	mov.w	r8, #0
 8000190:	e7e7      	b.n	8000162 <thread_two_fxn+0x12>
 8000192:	f043 0320 	orr.w	r3, r3, #32
 8000196:	61ab      	str	r3, [r5, #24]
 8000198:	4637      	mov	r7, r6
 800019a:	e7f1      	b.n	8000180 <thread_two_fxn+0x30>
 800019c:	40020000 	andmi	r0, r2, r0

080001a0 <thread_one_fxn>:
 80001a0:	e92d 41f0 	stmdb	sp!, {r4, r5, r6, r7, r8, lr}
 80001a4:	f000 fa66 	bl	8000674 <get_tick_count>
 80001a8:	4d10      	ldr	r5, [pc, #64]	@ (80001ec <thread_one_fxn+0x4c>)
 80001aa:	4604      	mov	r4, r0
 80001ac:	f04f 0801 	mov.w	r8, #1
 80001b0:	2700      	movs	r7, #0
 80001b2:	4621      	mov	r1, r4
 80001b4:	2005      	movs	r0, #5
 80001b6:	f000 fa79 	bl	80006ac <has_time_passed>
 80001ba:	4606      	mov	r6, r0
 80001bc:	b140      	cbz	r0, 80001d0 <thread_one_fxn+0x30>
 80001be:	f000 fa59 	bl	8000674 <get_tick_count>
 80001c2:	69ab      	ldr	r3, [r5, #24]
 80001c4:	4604      	mov	r4, r0
 80001c6:	b167      	cbz	r7, 80001e2 <thread_one_fxn+0x42>
 80001c8:	f443 1300 	orr.w	r3, r3, #2097152	@ 0x200000
 80001cc:	61ab      	str	r3, [r5, #24]
 80001ce:	2700      	movs	r7, #0
 80001d0:	f1b8 0f00 	cmp.w	r8, #0
 80001d4:	d002      	beq.n	80001dc <thread_one_fxn+0x3c>
 80001d6:	201e      	movs	r0, #30
 80001d8:	f000 f9bc 	bl	8000554 <neo_thread_sleep>
 80001dc:	f04f 0800 	mov.w	r8, #0
 80001e0:	e7e7      	b.n	80001b2 <thread_one_fxn+0x12>
 80001e2:	f043 0320 	orr.w	r3, r3, #32
 80001e6:	61ab      	str	r3, [r5, #24]
 80001e8:	4637      	mov	r7, r6
 80001ea:	e7f1      	b.n	80001d0 <thread_one_fxn+0x30>
 80001ec:	40020000 	andmi	r0, r2, r0

080001f0 <idle_thread_function>:
 80001f0:	bf30      	wfi
 80001f2:	e7fd      	b.n	80001f0 <idle_thread_function>

080001f4 <neo_kernel_init>:
 80001f4:	b513      	push	{r0, r1, r4, lr}
 80001f6:	b672      	cpsid	i
 80001f8:	2064      	movs	r0, #100	@ 0x64
 80001fa:	f000 fa61 	bl	80006c0 <setup_systick>
 80001fe:	4b1b      	ldr	r3, [pc, #108]	@ (800026c <neo_kernel_init+0x78>)
 8000200:	491b      	ldr	r1, [pc, #108]	@ (8000270 <neo_kernel_init+0x7c>)
 8000202:	22f0      	movs	r2, #240	@ 0xf0
 8000204:	f883 2022 	strb.w	r2, [r3, #34]	@ 0x22
 8000208:	2200      	movs	r2, #0
 800020a:	f883 2023 	strb.w	r2, [r3, #35]	@ 0x23
 800020e:	f101 032c 	add.w	r3, r1, #44	@ 0x2c
 8000212:	628b      	str	r3, [r1, #40]	@ 0x28
 8000214:	230a      	movs	r3, #10
 8000216:	f881 3030 	strb.w	r3, [r1, #48]	@ 0x30
 800021a:	f891 4030 	ldrb.w	r4, [r1, #48]	@ 0x30
 800021e:	6b48      	ldr	r0, [r1, #52]	@ 0x34
 8000220:	2301      	movs	r3, #1
 8000222:	40a3      	lsls	r3, r4
 8000224:	4303      	orrs	r3, r0
 8000226:	634b      	str	r3, [r1, #52]	@ 0x34
 8000228:	f101 0388 	add.w	r3, r1, #136	@ 0x88
 800022c:	f023 0307 	bic.w	r3, r3, #7
 8000230:	f04f 7080 	mov.w	r0, #16777216	@ 0x1000000
 8000234:	f843 0c04 	str.w	r0, [r3, #-4]
 8000238:	e943 2205 	strd	r2, r2, [r3, #-20]
 800023c:	480d      	ldr	r0, [pc, #52]	@ (8000274 <neo_kernel_init+0x80>)
 800023e:	f843 2c20 	str.w	r2, [r3, #-32]
 8000242:	e943 2207 	strd	r2, r2, [r3, #-28]
 8000246:	e943 2003 	strd	r2, r0, [r3, #-12]
 800024a:	9201      	str	r2, [sp, #4]
 800024c:	f1a3 0020 	sub.w	r0, r3, #32
 8000250:	9b01      	ldr	r3, [sp, #4]
 8000252:	2b07      	cmp	r3, #7
 8000254:	dd03      	ble.n	800025e <neo_kernel_init+0x6a>
 8000256:	62c8      	str	r0, [r1, #44]	@ 0x2c
 8000258:	b662      	cpsie	i
 800025a:	b002      	add	sp, #8
 800025c:	bd10      	pop	{r4, pc}
 800025e:	9b01      	ldr	r3, [sp, #4]
 8000260:	f840 2d04 	str.w	r2, [r0, #-4]!
 8000264:	3301      	adds	r3, #1
 8000266:	9301      	str	r3, [sp, #4]
 8000268:	e7f2      	b.n	8000250 <neo_kernel_init+0x5c>
 800026a:	bf00      	nop
 800026c:	e000ed00 	and	lr, r0, r0, lsl #26
 8000270:	20000154 	andcs	r0, r0, r4, asr r1
 8000274:	080001f1 	stmdaeq	r0, {r0, r4, r5, r6, r7, r8}

08000278 <thread_handler>:
 8000278:	4bcd      	ldr	r3, [pc, #820]	@ (80005b0 <neo_thread_sleep+0x5c>)
 800027a:	681b      	ldr	r3, [r3, #0]
 800027c:	b193      	cbz	r3, 80002a4 <thread_time_slice_not_expired>
 800027e:	4acd      	ldr	r2, [pc, #820]	@ (80005b4 <neo_thread_sleep+0x60>)
 8000280:	6812      	ldr	r2, [r2, #0]
 8000282:	2a01      	cmp	r2, #1
 8000284:	d009      	beq.n	800029a <first_time_thread_handler>
 8000286:	f000 b941 	b.w	800050c <update_sleeping_threads>

0800028a <return_from_update>:
 800028a:	48cb      	ldr	r0, [pc, #812]	@ (80005b8 <neo_thread_sleep+0x64>)
 800028c:	6801      	ldr	r1, [r0, #0]
 800028e:	48cb      	ldr	r0, [pc, #812]	@ (80005bc <neo_thread_sleep+0x68>)
 8000290:	6800      	ldr	r0, [r0, #0]
 8000292:	eba1 0100 	sub.w	r1, r1, r0
 8000296:	290a      	cmp	r1, #10
 8000298:	db04      	blt.n	80002a4 <thread_time_slice_not_expired>

0800029a <first_time_thread_handler>:
 800029a:	4a03      	ldr	r2, [pc, #12]	@ (80002a8 <thread_time_slice_not_expired+0x4>)
 800029c:	6853      	ldr	r3, [r2, #4]
 800029e:	f043 5380 	orr.w	r3, r3, #268435456	@ 0x10000000
 80002a2:	6053      	str	r3, [r2, #4]

080002a4 <thread_time_slice_not_expired>:
 80002a4:	f000 b9e4 	b.w	8000670 <exit_from_interrupt_>
 80002a8:	e000ed00 	and	lr, r0, r0, lsl #26

080002ac <PendSV_handler>:
 80002ac:	b672      	cpsid	i
 80002ae:	48c1      	ldr	r0, [pc, #772]	@ (80005b4 <neo_thread_sleep+0x60>)
 80002b0:	6800      	ldr	r0, [r0, #0]
 80002b2:	2801      	cmp	r0, #1
 80002b4:	d001      	beq.n	80002ba <skip_save>
 80002b6:	e92d 0ff0 	stmdb	sp!, {r4, r5, r6, r7, r8, r9, sl, fp}

080002ba <skip_save>:
 80002ba:	f000 b81d 	b.w	80002f8 <neo_thread_scheduler>

080002be <return_from_scheduler>:
 80002be:	f000 b804 	b.w	80002ca <neo_context_switch>

080002c2 <switch>:
 80002c2:	e8bd 0ff0 	ldmia.w	sp!, {r4, r5, r6, r7, r8, r9, sl, fp}
 80002c6:	b662      	cpsie	i
 80002c8:	4770      	bx	lr

080002ca <neo_context_switch>:
 80002ca:	4bba      	ldr	r3, [pc, #744]	@ (80005b4 <neo_thread_sleep+0x60>)
 80002cc:	681b      	ldr	r3, [r3, #0]
 80002ce:	2b01      	cmp	r3, #1
 80002d0:	d006      	beq.n	80002e0 <neo_context_switch+0x16>
 80002d2:	4abb      	ldr	r2, [pc, #748]	@ (80005c0 <neo_thread_sleep+0x6c>)
 80002d4:	4bbb      	ldr	r3, [pc, #748]	@ (80005c4 <neo_thread_sleep+0x70>)
 80002d6:	681b      	ldr	r3, [r3, #0]
 80002d8:	f852 0023 	ldr.w	r0, [r2, r3, lsl #2]
 80002dc:	f8c0 d000 	str.w	sp, [r0]
 80002e0:	4ab7      	ldr	r2, [pc, #732]	@ (80005c0 <neo_thread_sleep+0x6c>)
 80002e2:	4bb9      	ldr	r3, [pc, #740]	@ (80005c8 <neo_thread_sleep+0x74>)
 80002e4:	681b      	ldr	r3, [r3, #0]
 80002e6:	f852 0023 	ldr.w	r0, [r2, r3, lsl #2]
 80002ea:	f8d0 d000 	ldr.w	sp, [r0]
 80002ee:	48b1      	ldr	r0, [pc, #708]	@ (80005b4 <neo_thread_sleep+0x60>)
 80002f0:	f04f 0300 	mov.w	r3, #0
 80002f4:	6003      	str	r3, [r0, #0]
 80002f6:	e7e4      	b.n	80002c2 <switch>

080002f8 <neo_thread_scheduler>:
 80002f8:	4b25      	ldr	r3, [pc, #148]	@ (8000390 <neo_thread_scheduler+0x98>)
 80002fa:	681a      	ldr	r2, [r3, #0]
 80002fc:	4b25      	ldr	r3, [pc, #148]	@ (8000394 <neo_thread_scheduler+0x9c>)
 80002fe:	b302      	cbz	r2, 8000342 <neo_thread_scheduler+0x4a>
 8000300:	6b5a      	ldr	r2, [r3, #52]	@ 0x34
 8000302:	f432 6280 	bics.w	r2, r2, #1024	@ 0x400
 8000306:	d040      	beq.n	800038a <neo_thread_scheduler+0x92>
 8000308:	fab2 f282 	clz	r2, r2
 800030c:	f1c2 021f 	rsb	r2, r2, #31
 8000310:	b252      	sxtb	r2, r2
 8000312:	1c51      	adds	r1, r2, #1
 8000314:	bf08      	it	eq
 8000316:	220a      	moveq	r2, #10
 8000318:	f8c3 2088 	str.w	r2, [r3, #136]	@ 0x88
 800031c:	f8d3 1088 	ldr.w	r1, [r3, #136]	@ 0x88
 8000320:	2201      	movs	r2, #1
 8000322:	fa02 f101 	lsl.w	r1, r2, r1
 8000326:	f8c3 1090 	str.w	r1, [r3, #144]	@ 0x90
 800032a:	f8d3 0088 	ldr.w	r0, [r3, #136]	@ 0x88
 800032e:	6b59      	ldr	r1, [r3, #52]	@ 0x34
 8000330:	4082      	lsls	r2, r0
 8000332:	ea21 0202 	bic.w	r2, r1, r2
 8000336:	635a      	str	r2, [r3, #52]	@ 0x34
 8000338:	4a17      	ldr	r2, [pc, #92]	@ (8000398 <neo_thread_scheduler+0xa0>)
 800033a:	6812      	ldr	r2, [r2, #0]
 800033c:	f8c3 2094 	str.w	r2, [r3, #148]	@ 0x94
 8000340:	e7bd      	b.n	80002be <return_from_scheduler>
 8000342:	f8d3 2088 	ldr.w	r2, [r3, #136]	@ 0x88
 8000346:	f8c3 208c 	str.w	r2, [r3, #140]	@ 0x8c
 800034a:	f8d3 108c 	ldr.w	r1, [r3, #140]	@ 0x8c
 800034e:	f8d3 0090 	ldr.w	r0, [r3, #144]	@ 0x90
 8000352:	2201      	movs	r2, #1
 8000354:	fa02 f101 	lsl.w	r1, r2, r1
 8000358:	4201      	tst	r1, r0
 800035a:	d00f      	beq.n	800037c <neo_thread_scheduler+0x84>
 800035c:	f8d3 008c 	ldr.w	r0, [r3, #140]	@ 0x8c
 8000360:	f8d3 1090 	ldr.w	r1, [r3, #144]	@ 0x90
 8000364:	fa02 f000 	lsl.w	r0, r2, r0
 8000368:	ea21 0100 	bic.w	r1, r1, r0
 800036c:	f8c3 1090 	str.w	r1, [r3, #144]	@ 0x90
 8000370:	f8d3 008c 	ldr.w	r0, [r3, #140]	@ 0x8c
 8000374:	6b59      	ldr	r1, [r3, #52]	@ 0x34
 8000376:	4082      	lsls	r2, r0
 8000378:	430a      	orrs	r2, r1
 800037a:	635a      	str	r2, [r3, #52]	@ 0x34
 800037c:	6b5a      	ldr	r2, [r3, #52]	@ 0x34
 800037e:	f432 6280 	bics.w	r2, r2, #1024	@ 0x400
 8000382:	d102      	bne.n	800038a <neo_thread_scheduler+0x92>
 8000384:	f8d3 108c 	ldr.w	r1, [r3, #140]	@ 0x8c
 8000388:	e7be      	b.n	8000308 <neo_thread_scheduler+0x10>
 800038a:	220a      	movs	r2, #10
 800038c:	e7c4      	b.n	8000318 <neo_thread_scheduler+0x20>
 800038e:	bf00      	nop
 8000390:	20000000 	andcs	r0, r0, r0
 8000394:	20000154 	andcs	r0, r0, r4, asr r1
 8000398:	20000228 	andcs	r0, r0, r8, lsr #4

0800039c <neo_thread_init>:
 800039c:	b5f7      	push	{r0, r1, r2, r4, r5, r6, r7, lr}
 800039e:	b140      	cbz	r0, 80003b2 <neo_thread_init+0x16>
 80003a0:	b139      	cbz	r1, 80003b2 <neo_thread_init+0x16>
 80003a2:	b133      	cbz	r3, 80003b2 <neo_thread_init+0x16>
 80003a4:	b672      	cpsid	i
 80003a6:	4d1e      	ldr	r5, [pc, #120]	@ (8000420 <neo_thread_init+0x84>)
 80003a8:	f8d5 4098 	ldr.w	r4, [r5, #152]	@ 0x98
 80003ac:	2c09      	cmp	r4, #9
 80003ae:	d903      	bls.n	80003b8 <neo_thread_init+0x1c>
 80003b0:	b662      	cpsie	i
 80003b2:	2000      	movs	r0, #0
 80003b4:	b003      	add	sp, #12
 80003b6:	bdf0      	pop	{r4, r5, r6, r7, pc}
 80003b8:	f8d5 4098 	ldr.w	r4, [r5, #152]	@ 0x98
 80003bc:	f8d5 6098 	ldr.w	r6, [r5, #152]	@ 0x98
 80003c0:	7104      	strb	r4, [r0, #4]
 80003c2:	1c77      	adds	r7, r6, #1
 80003c4:	f8c5 7098 	str.w	r7, [r5, #152]	@ 0x98
 80003c8:	f845 0026 	str.w	r0, [r5, r6, lsl #2]
 80003cc:	9e08      	ldr	r6, [sp, #32]
 80003ce:	4433      	add	r3, r6
 80003d0:	f023 0307 	bic.w	r3, r3, #7
 80003d4:	f04f 7680 	mov.w	r6, #16777216	@ 0x1000000
 80003d8:	e943 1602 	strd	r1, r6, [r3, #-8]
 80003dc:	2100      	movs	r1, #0
 80003de:	e943 1104 	strd	r1, r1, [r3, #-16]
 80003e2:	e943 1106 	strd	r1, r1, [r3, #-24]
 80003e6:	f843 1c1c 	str.w	r1, [r3, #-28]
 80003ea:	f1a3 0620 	sub.w	r6, r3, #32
 80003ee:	f843 2c20 	str.w	r2, [r3, #-32]
 80003f2:	9101      	str	r1, [sp, #4]
 80003f4:	9b01      	ldr	r3, [sp, #4]
 80003f6:	2b07      	cmp	r3, #7
 80003f8:	dd0b      	ble.n	8000412 <neo_thread_init+0x76>
 80003fa:	f8d5 309c 	ldr.w	r3, [r5, #156]	@ 0x9c
 80003fe:	6006      	str	r6, [r0, #0]
 8000400:	b2e4      	uxtb	r4, r4
 8000402:	2001      	movs	r0, #1
 8000404:	fa00 f404 	lsl.w	r4, r0, r4
 8000408:	431c      	orrs	r4, r3
 800040a:	f8c5 409c 	str.w	r4, [r5, #156]	@ 0x9c
 800040e:	b662      	cpsie	i
 8000410:	e7d0      	b.n	80003b4 <neo_thread_init+0x18>
 8000412:	9b01      	ldr	r3, [sp, #4]
 8000414:	f846 1d04 	str.w	r1, [r6, #-4]!
 8000418:	3301      	adds	r3, #1
 800041a:	9301      	str	r3, [sp, #4]
 800041c:	e7ea      	b.n	80003f4 <neo_thread_init+0x58>
 800041e:	bf00      	nop
 8000420:	20000154 	andcs	r0, r0, r4, asr r1

08000424 <neo_thread_start>:
 8000424:	b672      	cpsid	i
 8000426:	4a0a      	ldr	r2, [pc, #40]	@ (8000450 <neo_thread_start+0x2c>)
 8000428:	7901      	ldrb	r1, [r0, #4]
 800042a:	2301      	movs	r3, #1
 800042c:	f8c2 30a0 	str.w	r3, [r2, #160]	@ 0xa0
 8000430:	408b      	lsls	r3, r1
 8000432:	f8d2 109c 	ldr.w	r1, [r2, #156]	@ 0x9c
 8000436:	420b      	tst	r3, r1
 8000438:	d006      	beq.n	8000448 <neo_thread_start+0x24>
 800043a:	6b51      	ldr	r1, [r2, #52]	@ 0x34
 800043c:	430b      	orrs	r3, r1
 800043e:	6353      	str	r3, [r2, #52]	@ 0x34
 8000440:	b662      	cpsie	i
 8000442:	f04f 0001 	mov.w	r0, #1
 8000446:	4770      	bx	lr
 8000448:	b662      	cpsie	i
 800044a:	f04f 0000 	mov.w	r0, #0
 800044e:	4770      	bx	lr
 8000450:	20000154 	andcs	r0, r0, r4, asr r1

08000454 <neo_thread_start_all_new>:
 8000454:	b672      	cpsid	i
 8000456:	4a0a      	ldr	r2, [pc, #40]	@ (8000480 <neo_thread_start_all_new+0x2c>)
 8000458:	2001      	movs	r0, #1
 800045a:	f8d2 309c 	ldr.w	r3, [r2, #156]	@ 0x9c
 800045e:	6b51      	ldr	r1, [r2, #52]	@ 0x34
 8000460:	fab3 f383 	clz	r3, r3
 8000464:	f1c3 031f 	rsb	r3, r3, #31
 8000468:	b2db      	uxtb	r3, r3
 800046a:	fa00 f303 	lsl.w	r3, r0, r3
 800046e:	4319      	orrs	r1, r3
 8000470:	6351      	str	r1, [r2, #52]	@ 0x34
 8000472:	f8d2 109c 	ldr.w	r1, [r2, #156]	@ 0x9c
 8000476:	ea21 0303 	bic.w	r3, r1, r3
 800047a:	f8c2 309c 	str.w	r3, [r2, #156]	@ 0x9c
 800047e:	e7ec      	b.n	800045a <neo_thread_start_all_new+0x6>
 8000480:	20000154 	andcs	r0, r0, r4, asr r1

08000484 <neo_thread_resume>:
 8000484:	b672      	cpsid	i
 8000486:	7903      	ldrb	r3, [r0, #4]
 8000488:	2201      	movs	r2, #1
 800048a:	409a      	lsls	r2, r3
 800048c:	4b0a      	ldr	r3, [pc, #40]	@ (80004b8 <neo_thread_resume+0x34>)
 800048e:	f8d3 10a4 	ldr.w	r1, [r3, #164]	@ 0xa4
 8000492:	420a      	tst	r2, r1
 8000494:	d00c      	beq.n	80004b0 <neo_thread_resume+0x2c>
 8000496:	6b59      	ldr	r1, [r3, #52]	@ 0x34
 8000498:	4311      	orrs	r1, r2
 800049a:	6359      	str	r1, [r3, #52]	@ 0x34
 800049c:	f8d3 10a4 	ldr.w	r1, [r3, #164]	@ 0xa4
 80004a0:	ea21 0202 	bic.w	r2, r1, r2
 80004a4:	f8c3 20a4 	str.w	r2, [r3, #164]	@ 0xa4
 80004a8:	b662      	cpsie	i
 80004aa:	f04f 0001 	mov.w	r0, #1
 80004ae:	4770      	bx	lr
 80004b0:	b662      	cpsie	i
 80004b2:	f04f 0000 	mov.w	r0, #0
 80004b6:	4770      	bx	lr
 80004b8:	20000154 	andcs	r0, r0, r4, asr r1

080004bc <neo_thread_pause>:
 80004bc:	b672      	cpsid	i
 80004be:	4b11      	ldr	r3, [pc, #68]	@ (8000504 <neo_thread_pause+0x48>)
 80004c0:	f8d3 1088 	ldr.w	r1, [r3, #136]	@ 0x88
 80004c4:	f8d3 00a4 	ldr.w	r0, [r3, #164]	@ 0xa4
 80004c8:	2201      	movs	r2, #1
 80004ca:	fa02 f101 	lsl.w	r1, r2, r1
 80004ce:	4301      	orrs	r1, r0
 80004d0:	f8c3 10a4 	str.w	r1, [r3, #164]	@ 0xa4
 80004d4:	f8d3 0088 	ldr.w	r0, [r3, #136]	@ 0x88
 80004d8:	6b59      	ldr	r1, [r3, #52]	@ 0x34
 80004da:	fa02 f000 	lsl.w	r0, r2, r0
 80004de:	ea21 0100 	bic.w	r1, r1, r0
 80004e2:	6359      	str	r1, [r3, #52]	@ 0x34
 80004e4:	f8d3 0088 	ldr.w	r0, [r3, #136]	@ 0x88
 80004e8:	f8d3 1090 	ldr.w	r1, [r3, #144]	@ 0x90
 80004ec:	4082      	lsls	r2, r0
 80004ee:	ea21 0202 	bic.w	r2, r1, r2
 80004f2:	f8c3 2090 	str.w	r2, [r3, #144]	@ 0x90
 80004f6:	4a04      	ldr	r2, [pc, #16]	@ (8000508 <neo_thread_pause+0x4c>)
 80004f8:	6853      	ldr	r3, [r2, #4]
 80004fa:	f043 5380 	orr.w	r3, r3, #268435456	@ 0x10000000
 80004fe:	6053      	str	r3, [r2, #4]
 8000500:	b662      	cpsie	i
 8000502:	4770      	bx	lr
 8000504:	20000154 	andcs	r0, r0, r4, asr r1
 8000508:	e000ed00 	and	lr, r0, r0, lsl #26

0800050c <update_sleeping_threads>:
 800050c:	b470      	push	{r4, r5, r6}
 800050e:	482f      	ldr	r0, [pc, #188]	@ (80005cc <neo_thread_sleep+0x78>)
 8000510:	492f      	ldr	r1, [pc, #188]	@ (80005d0 <neo_thread_sleep+0x7c>)
 8000512:	4a30      	ldr	r2, [pc, #192]	@ (80005d4 <neo_thread_sleep+0x80>)
 8000514:	f04f 0600 	mov.w	r6, #0

08000518 <check_thread>:
 8000518:	2e0a      	cmp	r6, #10
 800051a:	d019      	beq.n	8000550 <done>
 800051c:	6803      	ldr	r3, [r0, #0]
 800051e:	f04f 0401 	mov.w	r4, #1
 8000522:	fa04 f406 	lsl.w	r4, r4, r6
 8000526:	4223      	tst	r3, r4
 8000528:	d00f      	beq.n	800054a <next_thread>
 800052a:	ea4f 0586 	mov.w	r5, r6, lsl #2
 800052e:	594b      	ldr	r3, [r1, r5]
 8000530:	f1a3 0301 	sub.w	r3, r3, #1
 8000534:	514b      	str	r3, [r1, r5]
 8000536:	2b00      	cmp	r3, #0
 8000538:	d107      	bne.n	800054a <next_thread>
 800053a:	6803      	ldr	r3, [r0, #0]
 800053c:	ea23 0304 	bic.w	r3, r3, r4
 8000540:	6003      	str	r3, [r0, #0]
 8000542:	6813      	ldr	r3, [r2, #0]
 8000544:	ea43 0304 	orr.w	r3, r3, r4
 8000548:	6013      	str	r3, [r2, #0]

0800054a <next_thread>:
 800054a:	f106 0601 	add.w	r6, r6, #1
 800054e:	e7e3      	b.n	8000518 <check_thread>

08000550 <done>:
 8000550:	bc70      	pop	{r4, r5, r6}
 8000552:	e69a      	b.n	800028a <return_from_update>

08000554 <neo_thread_sleep>:
 8000554:	b672      	cpsid	i
 8000556:	4b14      	ldr	r3, [pc, #80]	@ (80005a8 <neo_thread_sleep+0x54>)
 8000558:	f8d3 1088 	ldr.w	r1, [r3, #136]	@ 0x88
 800055c:	f8d3 40a8 	ldr.w	r4, [r3, #168]	@ 0xa8
 8000560:	2201      	movs	r2, #1
 8000562:	fa02 f101 	lsl.w	r1, r2, r1
 8000566:	4321      	orrs	r1, r4
 8000568:	f8c3 10a8 	str.w	r1, [r3, #168]	@ 0xa8
 800056c:	f8d3 4088 	ldr.w	r4, [r3, #136]	@ 0x88
 8000570:	6b59      	ldr	r1, [r3, #52]	@ 0x34
 8000572:	fa02 f404 	lsl.w	r4, r2, r4
 8000576:	ea21 0104 	bic.w	r1, r1, r4
 800057a:	6359      	str	r1, [r3, #52]	@ 0x34
 800057c:	f8d3 4088 	ldr.w	r4, [r3, #136]	@ 0x88
 8000580:	f8d3 1090 	ldr.w	r1, [r3, #144]	@ 0x90
 8000584:	40a2      	lsls	r2, r4
 8000586:	ea21 0202 	bic.w	r2, r1, r2
 800058a:	f8c3 2090 	str.w	r2, [r3, #144]	@ 0x90
 800058e:	f8d3 2088 	ldr.w	r2, [r3, #136]	@ 0x88
 8000592:	eb03 0382 	add.w	r3, r3, r2, lsl #2
 8000596:	4a05      	ldr	r2, [pc, #20]	@ (80005ac <neo_thread_sleep+0x58>)
 8000598:	f8c3 00ac 	str.w	r0, [r3, #172]	@ 0xac
 800059c:	6853      	ldr	r3, [r2, #4]
 800059e:	f043 5380 	orr.w	r3, r3, #268435456	@ 0x10000000
 80005a2:	6053      	str	r3, [r2, #4]
 80005a4:	b662      	cpsie	i
 80005a6:	4770      	bx	lr
 80005a8:	20000154 	andcs	r0, r0, r4, asr r1
 80005ac:	e000ed00 	and	lr, r0, r0, lsl #26
 80005b0:	200001f4 			@ <UNDEFINED> instruction: 0x200001f4
 80005b4:	20000000 	andcs	r0, r0, r0
 80005b8:	20000228 	andcs	r0, r0, r8, lsr #4
 80005bc:	200001e8 	andcs	r0, r0, r8, ror #3
 80005c0:	20000154 	andcs	r0, r0, r4, asr r1
 80005c4:	200001e0 	andcs	r0, r0, r0, ror #3
 80005c8:	200001dc 			@ <UNDEFINED> instruction: 0x200001dc
 80005cc:	200001fc 			@ <UNDEFINED> instruction: 0x200001fc
 80005d0:	20000200 	andcs	r0, r0, r0, lsl #4
 80005d4:	20000188 	andcs	r0, r0, r8, lsl #3

080005d8 <default_handler>:
 80005d8:	f000 b830 	b.w	800063c <system_reset>

080005dc <reset_handler>:
 80005dc:	b510      	push	{r4, lr}
 80005de:	490d      	ldr	r1, [pc, #52]	@ (8000614 <reset_handler+0x38>)
 80005e0:	4b0d      	ldr	r3, [pc, #52]	@ (8000618 <reset_handler+0x3c>)
 80005e2:	480e      	ldr	r0, [pc, #56]	@ (800061c <reset_handler+0x40>)
 80005e4:	1a5b      	subs	r3, r3, r1
 80005e6:	2200      	movs	r2, #0
 80005e8:	429a      	cmp	r2, r3
 80005ea:	d109      	bne.n	8000600 <reset_handler+0x24>
 80005ec:	4a0c      	ldr	r2, [pc, #48]	@ (8000620 <reset_handler+0x44>)
 80005ee:	4b0d      	ldr	r3, [pc, #52]	@ (8000624 <reset_handler+0x48>)
 80005f0:	1ad1      	subs	r1, r2, r3
 80005f2:	2200      	movs	r2, #0
 80005f4:	4610      	mov	r0, r2
 80005f6:	428a      	cmp	r2, r1
 80005f8:	d108      	bne.n	800060c <reset_handler+0x30>
 80005fa:	f000 f881 	bl	8000700 <main>
 80005fe:	e7fe      	b.n	80005fe <reset_handler+0x22>
 8000600:	f810 4b01 	ldrb.w	r4, [r0], #1
 8000604:	f801 4b01 	strb.w	r4, [r1], #1
 8000608:	3201      	adds	r2, #1
 800060a:	e7ed      	b.n	80005e8 <reset_handler+0xc>
 800060c:	f803 0b01 	strb.w	r0, [r3], #1
 8000610:	3201      	adds	r2, #1
 8000612:	e7f0      	b.n	80005f6 <reset_handler+0x1a>
 8000614:	20000000 	andcs	r0, r0, r0
 8000618:	20000004 	andcs	r0, r0, r4
 800061c:	08000750 	stmdaeq	r0, {r4, r6, r8, r9, sl}
 8000620:	2000022c 	andcs	r0, r0, ip, lsr #4
 8000624:	20000004 	andcs	r0, r0, r4

08000628 <enable_fpu>:
 8000628:	4a03      	ldr	r2, [pc, #12]	@ (8000638 <enable_fpu+0x10>)
 800062a:	f8d2 3088 	ldr.w	r3, [r2, #136]	@ 0x88
 800062e:	f443 0370 	orr.w	r3, r3, #15728640	@ 0xf00000
 8000632:	f8c2 3088 	str.w	r3, [r2, #136]	@ 0x88
 8000636:	4770      	bx	lr
 8000638:	e000ed00 	and	lr, r0, r0, lsl #26

0800063c <system_reset>:
 800063c:	f3bf 8f4f 	dsb	sy
 8000640:	4905      	ldr	r1, [pc, #20]	@ (8000658 <system_reset+0x1c>)
 8000642:	4b06      	ldr	r3, [pc, #24]	@ (800065c <system_reset+0x20>)
 8000644:	68ca      	ldr	r2, [r1, #12]
 8000646:	f402 62e0 	and.w	r2, r2, #1792	@ 0x700
 800064a:	4313      	orrs	r3, r2
 800064c:	60cb      	str	r3, [r1, #12]
 800064e:	f3bf 8f4f 	dsb	sy
 8000652:	bf00      	nop
 8000654:	e7fd      	b.n	8000652 <system_reset+0x16>
 8000656:	bf00      	nop
 8000658:	e000ed00 	and	lr, r0, r0, lsl #26
 800065c:	05fa0004 	ldrbeq	r0, [sl, #4]!

08000660 <SysTick_handler>:
 8000660:	b672      	cpsid	i
 8000662:	4826      	ldr	r0, [pc, #152]	@ (80006fc <default_thread_handler+0x4>)
 8000664:	6801      	ldr	r1, [r0, #0]
 8000666:	f101 0101 	add.w	r1, r1, #1
 800066a:	6001      	str	r1, [r0, #0]
 800066c:	f7ff be04 	b.w	8000278 <thread_handler>

08000670 <exit_from_interrupt_>:
 8000670:	b662      	cpsie	i
 8000672:	4770      	bx	lr

08000674 <get_tick_count>:
 8000674:	b672      	cpsid	i
 8000676:	4b02      	ldr	r3, [pc, #8]	@ (8000680 <get_tick_count+0xc>)
 8000678:	6818      	ldr	r0, [r3, #0]
 800067a:	b662      	cpsie	i
 800067c:	4770      	bx	lr
 800067e:	bf00      	nop
 8000680:	20000228 	andcs	r0, r0, r8, lsr #4

08000684 <LED_setup>:
 8000684:	4a07      	ldr	r2, [pc, #28]	@ (80006a4 <LED_setup+0x20>)
 8000686:	6b13      	ldr	r3, [r2, #48]	@ 0x30
 8000688:	f043 0301 	orr.w	r3, r3, #1
 800068c:	6313      	str	r3, [r2, #48]	@ 0x30
 800068e:	4b06      	ldr	r3, [pc, #24]	@ (80006a8 <LED_setup+0x24>)
 8000690:	681a      	ldr	r2, [r3, #0]
 8000692:	f442 6280 	orr.w	r2, r2, #1024	@ 0x400
 8000696:	601a      	str	r2, [r3, #0]
 8000698:	681a      	ldr	r2, [r3, #0]
 800069a:	f422 6200 	bic.w	r2, r2, #2048	@ 0x800
 800069e:	601a      	str	r2, [r3, #0]
 80006a0:	4770      	bx	lr
 80006a2:	bf00      	nop
 80006a4:	40023800 	andmi	r3, r2, r0, lsl #16
 80006a8:	40020000 	andmi	r0, r2, r0

080006ac <has_time_passed>:
 80006ac:	b508      	push	{r3, lr}
 80006ae:	4602      	mov	r2, r0
 80006b0:	f7ff ffe0 	bl	8000674 <get_tick_count>
 80006b4:	1a40      	subs	r0, r0, r1
 80006b6:	4290      	cmp	r0, r2
 80006b8:	bf34      	ite	cc
 80006ba:	2000      	movcc	r0, #0
 80006bc:	2001      	movcs	r0, #1
 80006be:	bd08      	pop	{r3, pc}

080006c0 <setup_systick>:
 80006c0:	f04f 22e0 	mov.w	r2, #3758153728	@ 0xe000e000
 80006c4:	f44f 717a 	mov.w	r1, #1000	@ 0x3e8
 80006c8:	6913      	ldr	r3, [r2, #16]
 80006ca:	f043 0301 	orr.w	r3, r3, #1
 80006ce:	6113      	str	r3, [r2, #16]
 80006d0:	6913      	ldr	r3, [r2, #16]
 80006d2:	f043 0304 	orr.w	r3, r3, #4
 80006d6:	6113      	str	r3, [r2, #16]
 80006d8:	6913      	ldr	r3, [r2, #16]
 80006da:	f043 0302 	orr.w	r3, r3, #2
 80006de:	6113      	str	r3, [r2, #16]
 80006e0:	4b04      	ldr	r3, [pc, #16]	@ (80006f4 <setup_systick+0x34>)
 80006e2:	4343      	muls	r3, r0
 80006e4:	fbb3 f3f1 	udiv	r3, r3, r1
 80006e8:	3b01      	subs	r3, #1
 80006ea:	f023 437f 	bic.w	r3, r3, #4278190080	@ 0xff000000
 80006ee:	6153      	str	r3, [r2, #20]
 80006f0:	4770      	bx	lr
 80006f2:	bf00      	nop
 80006f4:	00f42400 	rscseq	r2, r4, r0, lsl #8

080006f8 <default_thread_handler>:
 80006f8:	4770      	bx	lr
 80006fa:	02280000 	eoreq	r0, r8, #0
 80006fe:	 	strlt	r2, [r7, #-0]

08000700 <main>:
 8000700:	b507      	push	{r0, r1, r2, lr}
 8000702:	f7ff ffbf 	bl	8000684 <LED_setup>
 8000706:	f7ff fd75 	bl	80001f4 <neo_kernel_init>
 800070a:	4b0b      	ldr	r3, [pc, #44]	@ (8000738 <main+0x38>)
 800070c:	490b      	ldr	r1, [pc, #44]	@ (800073c <main+0x3c>)
 800070e:	24a0      	movs	r4, #160	@ 0xa0
 8000710:	2200      	movs	r2, #0
 8000712:	1918      	adds	r0, r3, r4
 8000714:	9400      	str	r4, [sp, #0]
 8000716:	f7ff fe41 	bl	800039c <neo_thread_init>
 800071a:	4b09      	ldr	r3, [pc, #36]	@ (8000740 <main+0x40>)
 800071c:	4909      	ldr	r1, [pc, #36]	@ (8000744 <main+0x44>)
 800071e:	9400      	str	r4, [sp, #0]
 8000720:	2200      	movs	r2, #0
 8000722:	1918      	adds	r0, r3, r4
 8000724:	f7ff fe3a 	bl	800039c <neo_thread_init>
 8000728:	4807      	ldr	r0, [pc, #28]	@ (8000748 <main+0x48>)
 800072a:	f7ff fe7b 	bl	8000424 <neo_thread_start>
 800072e:	4807      	ldr	r0, [pc, #28]	@ (800074c <main+0x4c>)
 8000730:	f7ff fe78 	bl	8000424 <neo_thread_start>
 8000734:	e7fe      	b.n	8000734 <main+0x34>
 8000736:	bf00      	nop
 8000738:	20000004 	andcs	r0, r0, r4
 800073c:	080001a1 	stmdaeq	r0, {r0, r5, r7, r8}
 8000740:	200000ac 	andcs	r0, r0, ip, lsr #1
 8000744:	08000151 	stmdaeq	r0, {r0, r4, r6, r8}
 8000748:	200000a4 	andcs	r0, r0, r4, lsr #1
 800074c:	2000014c 	andcs	r0, r0, ip, asr #2

Disassembly of section .data:

20000000 <is_first_time>:
20000000:	00000001 	andeq	r0, r0, r1
