
binaries/output.elf:     file format elf32-littlearm


Disassembly of section .isr_vector:

08000000 <vectors>:
 8000000:	20018000 	andcs	r8, r1, r0
 8000004:	08000555 	stmdaeq	r0, {r0, r2, r4, r6, r8, sl}
 8000008:	08000551 	stmdaeq	r0, {r0, r4, r6, r8, sl}
 800000c:	08000551 	stmdaeq	r0, {r0, r4, r6, r8, sl}
 8000010:	08000551 	stmdaeq	r0, {r0, r4, r6, r8, sl}
 8000014:	08000551 	stmdaeq	r0, {r0, r4, r6, r8, sl}
 8000018:	08000551 	stmdaeq	r0, {r0, r4, r6, r8, sl}
	...
 800002c:	08000551 	stmdaeq	r0, {r0, r4, r6, r8, sl}
 8000030:	08000551 	stmdaeq	r0, {r0, r4, r6, r8, sl}
 8000034:	00000000 	andeq	r0, r0, r0
 8000038:	080002a1 	stmdaeq	r0, {r0, r5, r7, r9}
 800003c:	080005d9 	stmdaeq	r0, {r0, r3, r4, r6, r7, r8, sl}
 8000040:	08000551 	stmdaeq	r0, {r0, r4, r6, r8, sl}
 8000044:	08000551 	stmdaeq	r0, {r0, r4, r6, r8, sl}
 8000048:	08000551 	stmdaeq	r0, {r0, r4, r6, r8, sl}
 800004c:	08000551 	stmdaeq	r0, {r0, r4, r6, r8, sl}
 8000050:	08000551 	stmdaeq	r0, {r0, r4, r6, r8, sl}
 8000054:	08000551 	stmdaeq	r0, {r0, r4, r6, r8, sl}
 8000058:	08000551 	stmdaeq	r0, {r0, r4, r6, r8, sl}
 800005c:	08000551 	stmdaeq	r0, {r0, r4, r6, r8, sl}
 8000060:	08000551 	stmdaeq	r0, {r0, r4, r6, r8, sl}
 8000064:	08000551 	stmdaeq	r0, {r0, r4, r6, r8, sl}
 8000068:	08000551 	stmdaeq	r0, {r0, r4, r6, r8, sl}
 800006c:	08000551 	stmdaeq	r0, {r0, r4, r6, r8, sl}
 8000070:	08000551 	stmdaeq	r0, {r0, r4, r6, r8, sl}
 8000074:	08000551 	stmdaeq	r0, {r0, r4, r6, r8, sl}
 8000078:	08000551 	stmdaeq	r0, {r0, r4, r6, r8, sl}
 800007c:	08000551 	stmdaeq	r0, {r0, r4, r6, r8, sl}
 8000080:	08000551 	stmdaeq	r0, {r0, r4, r6, r8, sl}
 8000084:	08000551 	stmdaeq	r0, {r0, r4, r6, r8, sl}
 8000088:	08000551 	stmdaeq	r0, {r0, r4, r6, r8, sl}
 800008c:	08000551 	stmdaeq	r0, {r0, r4, r6, r8, sl}
 8000090:	08000551 	stmdaeq	r0, {r0, r4, r6, r8, sl}
 8000094:	08000551 	stmdaeq	r0, {r0, r4, r6, r8, sl}
 8000098:	08000551 	stmdaeq	r0, {r0, r4, r6, r8, sl}
 800009c:	08000551 	stmdaeq	r0, {r0, r4, r6, r8, sl}
 80000a0:	08000551 	stmdaeq	r0, {r0, r4, r6, r8, sl}
 80000a4:	08000551 	stmdaeq	r0, {r0, r4, r6, r8, sl}
 80000a8:	08000551 	stmdaeq	r0, {r0, r4, r6, r8, sl}
 80000ac:	08000551 	stmdaeq	r0, {r0, r4, r6, r8, sl}
 80000b0:	08000551 	stmdaeq	r0, {r0, r4, r6, r8, sl}
 80000b4:	08000551 	stmdaeq	r0, {r0, r4, r6, r8, sl}
 80000b8:	08000551 	stmdaeq	r0, {r0, r4, r6, r8, sl}
 80000bc:	08000551 	stmdaeq	r0, {r0, r4, r6, r8, sl}
 80000c0:	08000551 	stmdaeq	r0, {r0, r4, r6, r8, sl}
 80000c4:	08000551 	stmdaeq	r0, {r0, r4, r6, r8, sl}
 80000c8:	08000551 	stmdaeq	r0, {r0, r4, r6, r8, sl}
 80000cc:	08000551 	stmdaeq	r0, {r0, r4, r6, r8, sl}
 80000d0:	08000551 	stmdaeq	r0, {r0, r4, r6, r8, sl}
 80000d4:	08000551 	stmdaeq	r0, {r0, r4, r6, r8, sl}
 80000d8:	08000551 	stmdaeq	r0, {r0, r4, r6, r8, sl}
 80000dc:	08000551 	stmdaeq	r0, {r0, r4, r6, r8, sl}
 80000e0:	08000551 	stmdaeq	r0, {r0, r4, r6, r8, sl}
 80000e4:	08000551 	stmdaeq	r0, {r0, r4, r6, r8, sl}
 80000e8:	08000551 	stmdaeq	r0, {r0, r4, r6, r8, sl}
 80000ec:	08000551 	stmdaeq	r0, {r0, r4, r6, r8, sl}
 80000f0:	08000551 	stmdaeq	r0, {r0, r4, r6, r8, sl}
 80000f4:	08000551 	stmdaeq	r0, {r0, r4, r6, r8, sl}
 80000f8:	08000551 	stmdaeq	r0, {r0, r4, r6, r8, sl}
 80000fc:	08000551 	stmdaeq	r0, {r0, r4, r6, r8, sl}
 8000100:	08000551 	stmdaeq	r0, {r0, r4, r6, r8, sl}
 8000104:	08000551 	stmdaeq	r0, {r0, r4, r6, r8, sl}
 8000108:	08000551 	stmdaeq	r0, {r0, r4, r6, r8, sl}
 800010c:	08000551 	stmdaeq	r0, {r0, r4, r6, r8, sl}
 8000110:	08000551 	stmdaeq	r0, {r0, r4, r6, r8, sl}
 8000114:	08000551 	stmdaeq	r0, {r0, r4, r6, r8, sl}
 8000118:	08000551 	stmdaeq	r0, {r0, r4, r6, r8, sl}
 800011c:	08000551 	stmdaeq	r0, {r0, r4, r6, r8, sl}
	...

Disassembly of section .text:

08000150 <thread_two_fxn>:
 8000150:	e92d 41f0 	stmdb	sp!, {r4, r5, r6, r7, r8, lr}
 8000154:	f000 fa4a 	bl	80005ec <get_tick_count>
 8000158:	4d10      	ldr	r5, [pc, #64]	@ (800019c <thread_two_fxn+0x4c>)
 800015a:	4604      	mov	r4, r0
 800015c:	2700      	movs	r7, #0
 800015e:	f04f 0801 	mov.w	r8, #1
 8000162:	4621      	mov	r1, r4
 8000164:	2005      	movs	r0, #5
 8000166:	f000 fa5d 	bl	8000624 <has_time_passed>
 800016a:	4606      	mov	r6, r0
 800016c:	b140      	cbz	r0, 8000180 <thread_two_fxn+0x30>
 800016e:	f000 fa3d 	bl	80005ec <get_tick_count>
 8000172:	69ab      	ldr	r3, [r5, #24]
 8000174:	4604      	mov	r4, r0
 8000176:	b167      	cbz	r7, 8000192 <thread_two_fxn+0x42>
 8000178:	f443 1300 	orr.w	r3, r3, #2097152	@ 0x200000
 800017c:	61ab      	str	r3, [r5, #24]
 800017e:	2700      	movs	r7, #0
 8000180:	f1b8 0f00 	cmp.w	r8, #0
 8000184:	d002      	beq.n	800018c <thread_two_fxn+0x3c>
 8000186:	201e      	movs	r0, #30
 8000188:	f000 f9ba 	bl	8000500 <neo_thread_sleep>
 800018c:	f04f 0800 	mov.w	r8, #0
 8000190:	e7e7      	b.n	8000162 <thread_two_fxn+0x12>
 8000192:	f043 0320 	orr.w	r3, r3, #32
 8000196:	61ab      	str	r3, [r5, #24]
 8000198:	4637      	mov	r7, r6
 800019a:	e7f1      	b.n	8000180 <thread_two_fxn+0x30>
 800019c:	40020000 	andmi	r0, r2, r0

080001a0 <thread_one_fxn>:
 80001a0:	e92d 41f0 	stmdb	sp!, {r4, r5, r6, r7, r8, lr}
 80001a4:	f000 fa22 	bl	80005ec <get_tick_count>
 80001a8:	4d10      	ldr	r5, [pc, #64]	@ (80001ec <thread_one_fxn+0x4c>)
 80001aa:	4604      	mov	r4, r0
 80001ac:	f04f 0801 	mov.w	r8, #1
 80001b0:	2700      	movs	r7, #0
 80001b2:	4621      	mov	r1, r4
 80001b4:	2005      	movs	r0, #5
 80001b6:	f000 fa35 	bl	8000624 <has_time_passed>
 80001ba:	4606      	mov	r6, r0
 80001bc:	b140      	cbz	r0, 80001d0 <thread_one_fxn+0x30>
 80001be:	f000 fa15 	bl	80005ec <get_tick_count>
 80001c2:	69ab      	ldr	r3, [r5, #24]
 80001c4:	4604      	mov	r4, r0
 80001c6:	b167      	cbz	r7, 80001e2 <thread_one_fxn+0x42>
 80001c8:	f443 1300 	orr.w	r3, r3, #2097152	@ 0x200000
 80001cc:	61ab      	str	r3, [r5, #24]
 80001ce:	2700      	movs	r7, #0
 80001d0:	f1b8 0f00 	cmp.w	r8, #0
 80001d4:	d002      	beq.n	80001dc <thread_one_fxn+0x3c>
 80001d6:	201e      	movs	r0, #30
 80001d8:	f000 f992 	bl	8000500 <neo_thread_sleep>
 80001dc:	f04f 0800 	mov.w	r8, #0
 80001e0:	e7e7      	b.n	80001b2 <thread_one_fxn+0x12>
 80001e2:	f043 0320 	orr.w	r3, r3, #32
 80001e6:	61ab      	str	r3, [r5, #24]
 80001e8:	4637      	mov	r7, r6
 80001ea:	e7f1      	b.n	80001d0 <thread_one_fxn+0x30>
 80001ec:	40020000 	andmi	r0, r2, r0

080001f0 <idle_thread_function>:
 80001f0:	bf00      	nop
 80001f2:	e7fd      	b.n	80001f0 <idle_thread_function>

080001f4 <neo_kernel_init>:
 80001f4:	b507      	push	{r0, r1, r2, lr}
 80001f6:	b672      	cpsid	i
 80001f8:	2064      	movs	r0, #100	@ 0x64
 80001fa:	f000 fa1d 	bl	8000638 <setup_systick>
 80001fe:	4a18      	ldr	r2, [pc, #96]	@ (8000260 <neo_kernel_init+0x6c>)
 8000200:	4918      	ldr	r1, [pc, #96]	@ (8000264 <neo_kernel_init+0x70>)
 8000202:	23f0      	movs	r3, #240	@ 0xf0
 8000204:	f882 3022 	strb.w	r3, [r2, #34]	@ 0x22
 8000208:	2300      	movs	r3, #0
 800020a:	f882 3023 	strb.w	r3, [r2, #35]	@ 0x23
 800020e:	f101 022c 	add.w	r2, r1, #44	@ 0x2c
 8000212:	628a      	str	r2, [r1, #40]	@ 0x28
 8000214:	f101 0288 	add.w	r2, r1, #136	@ 0x88
 8000218:	f022 0207 	bic.w	r2, r2, #7
 800021c:	f881 3034 	strb.w	r3, [r1, #52]	@ 0x34
 8000220:	62ca      	str	r2, [r1, #44]	@ 0x2c
 8000222:	6aca      	ldr	r2, [r1, #44]	@ 0x2c
 8000224:	9301      	str	r3, [sp, #4]
 8000226:	f04f 7080 	mov.w	r0, #16777216	@ 0x1000000
 800022a:	f842 0c04 	str.w	r0, [r2, #-4]
 800022e:	e942 3305 	strd	r3, r3, [r2, #-20]
 8000232:	480d      	ldr	r0, [pc, #52]	@ (8000268 <neo_kernel_init+0x74>)
 8000234:	f842 3c20 	str.w	r3, [r2, #-32]
 8000238:	e942 3307 	strd	r3, r3, [r2, #-28]
 800023c:	e942 3003 	strd	r3, r0, [r2, #-12]
 8000240:	f1a2 0020 	sub.w	r0, r2, #32
 8000244:	9a01      	ldr	r2, [sp, #4]
 8000246:	2a07      	cmp	r2, #7
 8000248:	dd04      	ble.n	8000254 <neo_kernel_init+0x60>
 800024a:	62c8      	str	r0, [r1, #44]	@ 0x2c
 800024c:	b662      	cpsie	i
 800024e:	b003      	add	sp, #12
 8000250:	f85d fb04 	ldr.w	pc, [sp], #4
 8000254:	9a01      	ldr	r2, [sp, #4]
 8000256:	f840 3d04 	str.w	r3, [r0, #-4]!
 800025a:	3201      	adds	r2, #1
 800025c:	9201      	str	r2, [sp, #4]
 800025e:	e7f1      	b.n	8000244 <neo_kernel_init+0x50>
 8000260:	e000ed00 	and	lr, r0, r0, lsl #26
 8000264:	2000015c 	andcs	r0, r0, ip, asr r1
 8000268:	080001f1 	stmdaeq	r0, {r0, r4, r5, r6, r7, r8}

0800026c <thread_handler>:
 800026c:	4bb0      	ldr	r3, [pc, #704]	@ (8000530 <neo_thread_sleep+0x30>)
 800026e:	681b      	ldr	r3, [r3, #0]
 8000270:	b193      	cbz	r3, 8000298 <thread_time_slice_not_expired>
 8000272:	4ab0      	ldr	r2, [pc, #704]	@ (8000534 <neo_thread_sleep+0x34>)
 8000274:	6812      	ldr	r2, [r2, #0]
 8000276:	2a01      	cmp	r2, #1
 8000278:	d009      	beq.n	800028e <first_time_thread_handler>
 800027a:	f000 b921 	b.w	80004c0 <update_sleeping_threads>

0800027e <return_from_update>:
 800027e:	48ae      	ldr	r0, [pc, #696]	@ (8000538 <neo_thread_sleep+0x38>)
 8000280:	6801      	ldr	r1, [r0, #0]
 8000282:	48ae      	ldr	r0, [pc, #696]	@ (800053c <neo_thread_sleep+0x3c>)
 8000284:	6800      	ldr	r0, [r0, #0]
 8000286:	eba1 0100 	sub.w	r1, r1, r0
 800028a:	290a      	cmp	r1, #10
 800028c:	db04      	blt.n	8000298 <thread_time_slice_not_expired>

0800028e <first_time_thread_handler>:
 800028e:	4a03      	ldr	r2, [pc, #12]	@ (800029c <thread_time_slice_not_expired+0x4>)
 8000290:	6853      	ldr	r3, [r2, #4]
 8000292:	f043 5380 	orr.w	r3, r3, #268435456	@ 0x10000000
 8000296:	6053      	str	r3, [r2, #4]

08000298 <thread_time_slice_not_expired>:
 8000298:	f000 b9a6 	b.w	80005e8 <exit_from_interrupt_>
 800029c:	e000ed00 	and	lr, r0, r0, lsl #26

080002a0 <PendSV_handler>:
 80002a0:	b672      	cpsid	i
 80002a2:	48a4      	ldr	r0, [pc, #656]	@ (8000534 <neo_thread_sleep+0x34>)
 80002a4:	6800      	ldr	r0, [r0, #0]
 80002a6:	2801      	cmp	r0, #1
 80002a8:	d001      	beq.n	80002ae <skip_save>
 80002aa:	e92d 0ff0 	stmdb	sp!, {r4, r5, r6, r7, r8, r9, sl, fp}

080002ae <skip_save>:
 80002ae:	f000 b820 	b.w	80002f2 <neo_thread_scheduler>

080002b2 <return_from_scheduler>:
 80002b2:	f000 b804 	b.w	80002be <neo_context_switch>

080002b6 <switch>:
 80002b6:	e8bd 0ff0 	ldmia.w	sp!, {r4, r5, r6, r7, r8, r9, sl, fp}
 80002ba:	b662      	cpsie	i
 80002bc:	4770      	bx	lr

080002be <neo_context_switch>:
 80002be:	4ba0      	ldr	r3, [pc, #640]	@ (8000540 <neo_thread_sleep+0x40>)
 80002c0:	681b      	ldr	r3, [r3, #0]
 80002c2:	b1ab      	cbz	r3, 80002f0 <neo_context_switch+0x32>
 80002c4:	4b9b      	ldr	r3, [pc, #620]	@ (8000534 <neo_thread_sleep+0x34>)
 80002c6:	681b      	ldr	r3, [r3, #0]
 80002c8:	2b01      	cmp	r3, #1
 80002ca:	d006      	beq.n	80002da <neo_context_switch+0x1c>
 80002cc:	4a9d      	ldr	r2, [pc, #628]	@ (8000544 <neo_thread_sleep+0x44>)
 80002ce:	4b9e      	ldr	r3, [pc, #632]	@ (8000548 <neo_thread_sleep+0x48>)
 80002d0:	681b      	ldr	r3, [r3, #0]
 80002d2:	f852 0023 	ldr.w	r0, [r2, r3, lsl #2]
 80002d6:	f8c0 d000 	str.w	sp, [r0]
 80002da:	4a9a      	ldr	r2, [pc, #616]	@ (8000544 <neo_thread_sleep+0x44>)
 80002dc:	4b9b      	ldr	r3, [pc, #620]	@ (800054c <neo_thread_sleep+0x4c>)
 80002de:	681b      	ldr	r3, [r3, #0]
 80002e0:	f852 0023 	ldr.w	r0, [r2, r3, lsl #2]
 80002e4:	f8d0 d000 	ldr.w	sp, [r0]
 80002e8:	4892      	ldr	r0, [pc, #584]	@ (8000534 <neo_thread_sleep+0x34>)
 80002ea:	f04f 0300 	mov.w	r3, #0
 80002ee:	6003      	str	r3, [r0, #0]
 80002f0:	e7e1      	b.n	80002b6 <switch>

080002f2 <neo_thread_scheduler>:
 80002f2:	4b2a      	ldr	r3, [pc, #168]	@ (800039c <neo_thread_scheduler+0xaa>)
 80002f4:	f8d3 2088 	ldr.w	r2, [r3, #136]	@ 0x88
 80002f8:	b35a      	cbz	r2, 8000352 <neo_thread_scheduler+0x60>
 80002fa:	4a29      	ldr	r2, [pc, #164]	@ (80003a0 <neo_thread_scheduler+0xae>)
 80002fc:	6812      	ldr	r2, [r2, #0]
 80002fe:	2a00      	cmp	r2, #0
 8000300:	d140      	bne.n	8000384 <neo_thread_scheduler+0x92>
 8000302:	f8d3 108c 	ldr.w	r1, [r3, #140]	@ 0x8c
 8000306:	f8c3 1090 	str.w	r1, [r3, #144]	@ 0x90
 800030a:	f8d3 1090 	ldr.w	r1, [r3, #144]	@ 0x90
 800030e:	290a      	cmp	r1, #10
 8000310:	d00b      	beq.n	800032a <neo_thread_scheduler+0x38>
 8000312:	f8d3 1090 	ldr.w	r1, [r3, #144]	@ 0x90
 8000316:	f853 1021 	ldr.w	r1, [r3, r1, lsl #2]
 800031a:	7a09      	ldrb	r1, [r1, #8]
 800031c:	2901      	cmp	r1, #1
 800031e:	bf02      	ittt	eq
 8000320:	f8d3 1090 	ldreq.w	r1, [r3, #144]	@ 0x90
 8000324:	f853 1021 	ldreq.w	r1, [r3, r1, lsl #2]
 8000328:	720a      	strbeq	r2, [r1, #8]
 800032a:	f8d3 1090 	ldr.w	r1, [r3, #144]	@ 0x90
 800032e:	290a      	cmp	r1, #10
 8000330:	d008      	beq.n	8000344 <neo_thread_scheduler+0x52>
 8000332:	f8d3 2090 	ldr.w	r2, [r3, #144]	@ 0x90
 8000336:	f8d3 1088 	ldr.w	r1, [r3, #136]	@ 0x88
 800033a:	3201      	adds	r2, #1
 800033c:	fbb2 f0f1 	udiv	r0, r2, r1
 8000340:	fb01 2210 	mls	r2, r1, r0, r2
 8000344:	4611      	mov	r1, r2
 8000346:	f853 0021 	ldr.w	r0, [r3, r1, lsl #2]
 800034a:	7a00      	ldrb	r0, [r0, #8]
 800034c:	b9e0      	cbnz	r0, 8000388 <neo_thread_scheduler+0x96>
 800034e:	f8c3 108c 	str.w	r1, [r3, #140]	@ 0x8c
 8000352:	f8d3 208c 	ldr.w	r2, [r3, #140]	@ 0x8c
 8000356:	f853 2022 	ldr.w	r2, [r3, r2, lsl #2]
 800035a:	2101      	movs	r1, #1
 800035c:	7211      	strb	r1, [r2, #8]
 800035e:	4a11      	ldr	r2, [pc, #68]	@ (80003a4 <neo_thread_scheduler+0xb2>)
 8000360:	6812      	ldr	r2, [r2, #0]
 8000362:	f8c3 2094 	str.w	r2, [r3, #148]	@ 0x94
 8000366:	e7a4      	b.n	80002b2 <return_from_scheduler>
 8000368:	f853 1022 	ldr.w	r1, [r3, r2, lsl #2]
 800036c:	7a09      	ldrb	r1, [r1, #8]
 800036e:	b911      	cbnz	r1, 8000376 <neo_thread_scheduler+0x84>
 8000370:	f8c3 208c 	str.w	r2, [r3, #140]	@ 0x8c
 8000374:	e7ed      	b.n	8000352 <neo_thread_scheduler+0x60>
 8000376:	3201      	adds	r2, #1
 8000378:	f8d3 1088 	ldr.w	r1, [r3, #136]	@ 0x88
 800037c:	4291      	cmp	r1, r2
 800037e:	d8f3      	bhi.n	8000368 <neo_thread_scheduler+0x76>
 8000380:	220a      	movs	r2, #10
 8000382:	e7f5      	b.n	8000370 <neo_thread_scheduler+0x7e>
 8000384:	2200      	movs	r2, #0
 8000386:	e7f7      	b.n	8000378 <neo_thread_scheduler+0x86>
 8000388:	f8d3 0088 	ldr.w	r0, [r3, #136]	@ 0x88
 800038c:	3101      	adds	r1, #1
 800038e:	fbb1 f4f0 	udiv	r4, r1, r0
 8000392:	fb00 1114 	mls	r1, r0, r4, r1
 8000396:	428a      	cmp	r2, r1
 8000398:	d1d5      	bne.n	8000346 <neo_thread_scheduler+0x54>
 800039a:	e7f1      	b.n	8000380 <neo_thread_scheduler+0x8e>
 800039c:	2000015c 	andcs	r0, r0, ip, asr r1
 80003a0:	20000000 	andcs	r0, r0, r0
 80003a4:	200001f8 			@ <UNDEFINED> instruction: 0x200001f8

080003a8 <neo_thread_init>:
 80003a8:	b573      	push	{r0, r1, r4, r5, r6, lr}
 80003aa:	b140      	cbz	r0, 80003be <neo_thread_init+0x16>
 80003ac:	b139      	cbz	r1, 80003be <neo_thread_init+0x16>
 80003ae:	b133      	cbz	r3, 80003be <neo_thread_init+0x16>
 80003b0:	b672      	cpsid	i
 80003b2:	4c19      	ldr	r4, [pc, #100]	@ (8000418 <neo_thread_init+0x70>)
 80003b4:	f8d4 5088 	ldr.w	r5, [r4, #136]	@ 0x88
 80003b8:	2d09      	cmp	r5, #9
 80003ba:	d903      	bls.n	80003c4 <neo_thread_init+0x1c>
 80003bc:	b662      	cpsie	i
 80003be:	2000      	movs	r0, #0
 80003c0:	b002      	add	sp, #8
 80003c2:	bd70      	pop	{r4, r5, r6, pc}
 80003c4:	f8d4 5088 	ldr.w	r5, [r4, #136]	@ 0x88
 80003c8:	1c6e      	adds	r6, r5, #1
 80003ca:	f8c4 6088 	str.w	r6, [r4, #136]	@ 0x88
 80003ce:	f844 0025 	str.w	r0, [r4, r5, lsl #2]
 80003d2:	9c06      	ldr	r4, [sp, #24]
 80003d4:	4423      	add	r3, r4
 80003d6:	f023 0307 	bic.w	r3, r3, #7
 80003da:	f04f 7480 	mov.w	r4, #16777216	@ 0x1000000
 80003de:	e943 1402 	strd	r1, r4, [r3, #-8]
 80003e2:	2100      	movs	r1, #0
 80003e4:	e943 1104 	strd	r1, r1, [r3, #-16]
 80003e8:	e943 1106 	strd	r1, r1, [r3, #-24]
 80003ec:	f843 1c1c 	str.w	r1, [r3, #-28]
 80003f0:	f1a3 0420 	sub.w	r4, r3, #32
 80003f4:	f843 2c20 	str.w	r2, [r3, #-32]
 80003f8:	9101      	str	r1, [sp, #4]
 80003fa:	9b01      	ldr	r3, [sp, #4]
 80003fc:	2b07      	cmp	r3, #7
 80003fe:	dd05      	ble.n	800040c <neo_thread_init+0x64>
 8000400:	2305      	movs	r3, #5
 8000402:	6004      	str	r4, [r0, #0]
 8000404:	7203      	strb	r3, [r0, #8]
 8000406:	b662      	cpsie	i
 8000408:	2001      	movs	r0, #1
 800040a:	e7d9      	b.n	80003c0 <neo_thread_init+0x18>
 800040c:	9b01      	ldr	r3, [sp, #4]
 800040e:	f844 1d04 	str.w	r1, [r4, #-4]!
 8000412:	3301      	adds	r3, #1
 8000414:	9301      	str	r3, [sp, #4]
 8000416:	e7f0      	b.n	80003fa <neo_thread_init+0x52>
 8000418:	2000015c 	andcs	r0, r0, ip, asr r1

0800041c <neo_thread_start>:
 800041c:	b672      	cpsid	i
 800041e:	4b08      	ldr	r3, [pc, #32]	@ (8000440 <neo_thread_start+0x24>)
 8000420:	2201      	movs	r2, #1
 8000422:	f8c3 2098 	str.w	r2, [r3, #152]	@ 0x98
 8000426:	7a03      	ldrb	r3, [r0, #8]
 8000428:	2b05      	cmp	r3, #5
 800042a:	d105      	bne.n	8000438 <neo_thread_start+0x1c>
 800042c:	2300      	movs	r3, #0
 800042e:	7203      	strb	r3, [r0, #8]
 8000430:	b662      	cpsie	i
 8000432:	f04f 0001 	mov.w	r0, #1
 8000436:	4770      	bx	lr
 8000438:	b662      	cpsie	i
 800043a:	f04f 0000 	mov.w	r0, #0
 800043e:	4770      	bx	lr
 8000440:	2000015c 	andcs	r0, r0, ip, asr r1

08000444 <neo_thread_start_all_new>:
 8000444:	b672      	cpsid	i
 8000446:	2300      	movs	r3, #0
 8000448:	4a0b      	ldr	r2, [pc, #44]	@ (8000478 <neo_thread_start_all_new+0x34>)
 800044a:	4618      	mov	r0, r3
 800044c:	f8d2 1088 	ldr.w	r1, [r2, #136]	@ 0x88
 8000450:	4299      	cmp	r1, r3
 8000452:	d804      	bhi.n	800045e <neo_thread_start_all_new+0x1a>
 8000454:	2301      	movs	r3, #1
 8000456:	f8c2 3098 	str.w	r3, [r2, #152]	@ 0x98
 800045a:	b662      	cpsie	i
 800045c:	4770      	bx	lr
 800045e:	f852 1023 	ldr.w	r1, [r2, r3, lsl #2]
 8000462:	7a09      	ldrb	r1, [r1, #8]
 8000464:	2905      	cmp	r1, #5
 8000466:	bf08      	it	eq
 8000468:	f852 1023 	ldreq.w	r1, [r2, r3, lsl #2]
 800046c:	f103 0301 	add.w	r3, r3, #1
 8000470:	bf08      	it	eq
 8000472:	7208      	strbeq	r0, [r1, #8]
 8000474:	e7ea      	b.n	800044c <neo_thread_start_all_new+0x8>
 8000476:	bf00      	nop
 8000478:	2000015c 	andcs	r0, r0, ip, asr r1

0800047c <neo_thread_resume>:
 800047c:	b672      	cpsid	i
 800047e:	7a03      	ldrb	r3, [r0, #8]
 8000480:	2b03      	cmp	r3, #3
 8000482:	d105      	bne.n	8000490 <neo_thread_resume+0x14>
 8000484:	2300      	movs	r3, #0
 8000486:	7203      	strb	r3, [r0, #8]
 8000488:	b662      	cpsie	i
 800048a:	f04f 0001 	mov.w	r0, #1
 800048e:	4770      	bx	lr
 8000490:	b662      	cpsie	i
 8000492:	f04f 0000 	mov.w	r0, #0
 8000496:	4770      	bx	lr

08000498 <neo_thread_pause>:
 8000498:	b672      	cpsid	i
 800049a:	4b07      	ldr	r3, [pc, #28]	@ (80004b8 <neo_thread_pause+0x20>)
 800049c:	f8d3 208c 	ldr.w	r2, [r3, #140]	@ 0x8c
 80004a0:	f853 3022 	ldr.w	r3, [r3, r2, lsl #2]
 80004a4:	2203      	movs	r2, #3
 80004a6:	721a      	strb	r2, [r3, #8]
 80004a8:	4a04      	ldr	r2, [pc, #16]	@ (80004bc <neo_thread_pause+0x24>)
 80004aa:	6853      	ldr	r3, [r2, #4]
 80004ac:	f043 5380 	orr.w	r3, r3, #268435456	@ 0x10000000
 80004b0:	6053      	str	r3, [r2, #4]
 80004b2:	b662      	cpsie	i
 80004b4:	4770      	bx	lr
 80004b6:	bf00      	nop
 80004b8:	2000015c 	andcs	r0, r0, ip, asr r1
 80004bc:	e000ed00 	and	lr, r0, r0, lsl #26

080004c0 <update_sleeping_threads>:
 80004c0:	f04f 0000 	mov.w	r0, #0
 80004c4:	491e      	ldr	r1, [pc, #120]	@ (8000540 <neo_thread_sleep+0x40>)
 80004c6:	6809      	ldr	r1, [r1, #0]
 80004c8:	4a1e      	ldr	r2, [pc, #120]	@ (8000544 <neo_thread_sleep+0x44>)

080004ca <sleeping_threads_loop>:
 80004ca:	4288      	cmp	r0, r1
 80004cc:	d017      	beq.n	80004fe <exit_loop>
 80004ce:	6813      	ldr	r3, [r2, #0]
 80004d0:	f893 c008 	ldrb.w	ip, [r3, #8]
 80004d4:	f1bc 0f02 	cmp.w	ip, #2
 80004d8:	d10c      	bne.n	80004f4 <next_iter>
 80004da:	f8d3 c004 	ldr.w	ip, [r3, #4]
 80004de:	f1bc 0c01 	subs.w	ip, ip, #1
 80004e2:	f8c3 c004 	str.w	ip, [r3, #4]
 80004e6:	f1bc 0f00 	cmp.w	ip, #0
 80004ea:	d103      	bne.n	80004f4 <next_iter>
 80004ec:	f04f 0c00 	mov.w	ip, #0
 80004f0:	f883 c008 	strb.w	ip, [r3, #8]

080004f4 <next_iter>:
 80004f4:	f102 0204 	add.w	r2, r2, #4
 80004f8:	f100 0001 	add.w	r0, r0, #1
 80004fc:	e7e5      	b.n	80004ca <sleeping_threads_loop>

080004fe <exit_loop>:
 80004fe:	e6be      	b.n	800027e <return_from_update>

08000500 <neo_thread_sleep>:
 8000500:	b672      	cpsid	i
 8000502:	4b09      	ldr	r3, [pc, #36]	@ (8000528 <neo_thread_sleep+0x28>)
 8000504:	f8d3 208c 	ldr.w	r2, [r3, #140]	@ 0x8c
 8000508:	f853 2022 	ldr.w	r2, [r3, r2, lsl #2]
 800050c:	2102      	movs	r1, #2
 800050e:	7211      	strb	r1, [r2, #8]
 8000510:	f8d3 208c 	ldr.w	r2, [r3, #140]	@ 0x8c
 8000514:	f853 3022 	ldr.w	r3, [r3, r2, lsl #2]
 8000518:	4a04      	ldr	r2, [pc, #16]	@ (800052c <neo_thread_sleep+0x2c>)
 800051a:	6058      	str	r0, [r3, #4]
 800051c:	6853      	ldr	r3, [r2, #4]
 800051e:	f043 5380 	orr.w	r3, r3, #268435456	@ 0x10000000
 8000522:	6053      	str	r3, [r2, #4]
 8000524:	b662      	cpsie	i
 8000526:	4770      	bx	lr
 8000528:	2000015c 	andcs	r0, r0, ip, asr r1
 800052c:	e000ed00 	and	lr, r0, r0, lsl #26
 8000530:	200001f4 			@ <UNDEFINED> instruction: 0x200001f4
 8000534:	20000000 	andcs	r0, r0, r0
 8000538:	200001f8 			@ <UNDEFINED> instruction: 0x200001f8
 800053c:	200001f0 			@ <UNDEFINED> instruction: 0x200001f0
 8000540:	200001e4 	andcs	r0, r0, r4, ror #3
 8000544:	2000015c 	andcs	r0, r0, ip, asr r1
 8000548:	200001ec 	andcs	r0, r0, ip, ror #3
 800054c:	200001e8 	andcs	r0, r0, r8, ror #3

08000550 <default_handler>:
 8000550:	f000 b830 	b.w	80005b4 <system_reset>

08000554 <reset_handler>:
 8000554:	b510      	push	{r4, lr}
 8000556:	490d      	ldr	r1, [pc, #52]	@ (800058c <reset_handler+0x38>)
 8000558:	4b0d      	ldr	r3, [pc, #52]	@ (8000590 <reset_handler+0x3c>)
 800055a:	480e      	ldr	r0, [pc, #56]	@ (8000594 <reset_handler+0x40>)
 800055c:	1a5b      	subs	r3, r3, r1
 800055e:	2200      	movs	r2, #0
 8000560:	429a      	cmp	r2, r3
 8000562:	d109      	bne.n	8000578 <reset_handler+0x24>
 8000564:	4a0c      	ldr	r2, [pc, #48]	@ (8000598 <reset_handler+0x44>)
 8000566:	4b0d      	ldr	r3, [pc, #52]	@ (800059c <reset_handler+0x48>)
 8000568:	1ad1      	subs	r1, r2, r3
 800056a:	2200      	movs	r2, #0
 800056c:	4610      	mov	r0, r2
 800056e:	428a      	cmp	r2, r1
 8000570:	d108      	bne.n	8000584 <reset_handler+0x30>
 8000572:	f000 f881 	bl	8000678 <main>
 8000576:	e7fe      	b.n	8000576 <reset_handler+0x22>
 8000578:	f810 4b01 	ldrb.w	r4, [r0], #1
 800057c:	f801 4b01 	strb.w	r4, [r1], #1
 8000580:	3201      	adds	r2, #1
 8000582:	e7ed      	b.n	8000560 <reset_handler+0xc>
 8000584:	f803 0b01 	strb.w	r0, [r3], #1
 8000588:	3201      	adds	r2, #1
 800058a:	e7f0      	b.n	800056e <reset_handler+0x1a>
 800058c:	20000000 	andcs	r0, r0, r0
 8000590:	20000004 	andcs	r0, r0, r4
 8000594:	080006c8 	stmdaeq	r0, {r3, r6, r7, r9, sl}
 8000598:	200001fc 			@ <UNDEFINED> instruction: 0x200001fc
 800059c:	20000004 	andcs	r0, r0, r4

080005a0 <enable_fpu>:
 80005a0:	4a03      	ldr	r2, [pc, #12]	@ (80005b0 <enable_fpu+0x10>)
 80005a2:	f8d2 3088 	ldr.w	r3, [r2, #136]	@ 0x88
 80005a6:	f443 0370 	orr.w	r3, r3, #15728640	@ 0xf00000
 80005aa:	f8c2 3088 	str.w	r3, [r2, #136]	@ 0x88
 80005ae:	4770      	bx	lr
 80005b0:	e000ed00 	and	lr, r0, r0, lsl #26

080005b4 <system_reset>:
 80005b4:	f3bf 8f4f 	dsb	sy
 80005b8:	4905      	ldr	r1, [pc, #20]	@ (80005d0 <system_reset+0x1c>)
 80005ba:	4b06      	ldr	r3, [pc, #24]	@ (80005d4 <system_reset+0x20>)
 80005bc:	68ca      	ldr	r2, [r1, #12]
 80005be:	f402 62e0 	and.w	r2, r2, #1792	@ 0x700
 80005c2:	4313      	orrs	r3, r2
 80005c4:	60cb      	str	r3, [r1, #12]
 80005c6:	f3bf 8f4f 	dsb	sy
 80005ca:	bf00      	nop
 80005cc:	e7fd      	b.n	80005ca <system_reset+0x16>
 80005ce:	bf00      	nop
 80005d0:	e000ed00 	and	lr, r0, r0, lsl #26
 80005d4:	05fa0004 	ldrbeq	r0, [sl, #4]!

080005d8 <SysTick_handler>:
 80005d8:	b672      	cpsid	i
 80005da:	4826      	ldr	r0, [pc, #152]	@ (8000674 <default_thread_handler+0x4>)
 80005dc:	6801      	ldr	r1, [r0, #0]
 80005de:	f101 0101 	add.w	r1, r1, #1
 80005e2:	6001      	str	r1, [r0, #0]
 80005e4:	f7ff be42 	b.w	800026c <thread_handler>

080005e8 <exit_from_interrupt_>:
 80005e8:	b662      	cpsie	i
 80005ea:	4770      	bx	lr

080005ec <get_tick_count>:
 80005ec:	b672      	cpsid	i
 80005ee:	4b02      	ldr	r3, [pc, #8]	@ (80005f8 <get_tick_count+0xc>)
 80005f0:	6818      	ldr	r0, [r3, #0]
 80005f2:	b662      	cpsie	i
 80005f4:	4770      	bx	lr
 80005f6:	bf00      	nop
 80005f8:	200001f8 			@ <UNDEFINED> instruction: 0x200001f8

080005fc <LED_setup>:
 80005fc:	4a07      	ldr	r2, [pc, #28]	@ (800061c <LED_setup+0x20>)
 80005fe:	6b13      	ldr	r3, [r2, #48]	@ 0x30
 8000600:	f043 0301 	orr.w	r3, r3, #1
 8000604:	6313      	str	r3, [r2, #48]	@ 0x30
 8000606:	4b06      	ldr	r3, [pc, #24]	@ (8000620 <LED_setup+0x24>)
 8000608:	681a      	ldr	r2, [r3, #0]
 800060a:	f442 6280 	orr.w	r2, r2, #1024	@ 0x400
 800060e:	601a      	str	r2, [r3, #0]
 8000610:	681a      	ldr	r2, [r3, #0]
 8000612:	f422 6200 	bic.w	r2, r2, #2048	@ 0x800
 8000616:	601a      	str	r2, [r3, #0]
 8000618:	4770      	bx	lr
 800061a:	bf00      	nop
 800061c:	40023800 	andmi	r3, r2, r0, lsl #16
 8000620:	40020000 	andmi	r0, r2, r0

08000624 <has_time_passed>:
 8000624:	b508      	push	{r3, lr}
 8000626:	4602      	mov	r2, r0
 8000628:	f7ff ffe0 	bl	80005ec <get_tick_count>
 800062c:	1a40      	subs	r0, r0, r1
 800062e:	4290      	cmp	r0, r2
 8000630:	bf34      	ite	cc
 8000632:	2000      	movcc	r0, #0
 8000634:	2001      	movcs	r0, #1
 8000636:	bd08      	pop	{r3, pc}

08000638 <setup_systick>:
 8000638:	f04f 22e0 	mov.w	r2, #3758153728	@ 0xe000e000
 800063c:	f44f 717a 	mov.w	r1, #1000	@ 0x3e8
 8000640:	6913      	ldr	r3, [r2, #16]
 8000642:	f043 0301 	orr.w	r3, r3, #1
 8000646:	6113      	str	r3, [r2, #16]
 8000648:	6913      	ldr	r3, [r2, #16]
 800064a:	f043 0304 	orr.w	r3, r3, #4
 800064e:	6113      	str	r3, [r2, #16]
 8000650:	6913      	ldr	r3, [r2, #16]
 8000652:	f043 0302 	orr.w	r3, r3, #2
 8000656:	6113      	str	r3, [r2, #16]
 8000658:	4b04      	ldr	r3, [pc, #16]	@ (800066c <setup_systick+0x34>)
 800065a:	4343      	muls	r3, r0
 800065c:	fbb3 f3f1 	udiv	r3, r3, r1
 8000660:	3b01      	subs	r3, #1
 8000662:	f023 437f 	bic.w	r3, r3, #4278190080	@ 0xff000000
 8000666:	6153      	str	r3, [r2, #20]
 8000668:	4770      	bx	lr
 800066a:	bf00      	nop
 800066c:	00f42400 	rscseq	r2, r4, r0, lsl #8

08000670 <default_thread_handler>:
 8000670:	4770      	bx	lr
 8000672:	01f80000 	mvnseq	r0, r0
 8000676:	 	strlt	r2, [r7, #-0]

08000678 <main>:
 8000678:	b507      	push	{r0, r1, r2, lr}
 800067a:	f7ff ffbf 	bl	80005fc <LED_setup>
 800067e:	f7ff fdb9 	bl	80001f4 <neo_kernel_init>
 8000682:	4b0b      	ldr	r3, [pc, #44]	@ (80006b0 <main+0x38>)
 8000684:	490b      	ldr	r1, [pc, #44]	@ (80006b4 <main+0x3c>)
 8000686:	24a0      	movs	r4, #160	@ 0xa0
 8000688:	2200      	movs	r2, #0
 800068a:	1918      	adds	r0, r3, r4
 800068c:	9400      	str	r4, [sp, #0]
 800068e:	f7ff fe8b 	bl	80003a8 <neo_thread_init>
 8000692:	4b09      	ldr	r3, [pc, #36]	@ (80006b8 <main+0x40>)
 8000694:	4909      	ldr	r1, [pc, #36]	@ (80006bc <main+0x44>)
 8000696:	9400      	str	r4, [sp, #0]
 8000698:	2200      	movs	r2, #0
 800069a:	1918      	adds	r0, r3, r4
 800069c:	f7ff fe84 	bl	80003a8 <neo_thread_init>
 80006a0:	4807      	ldr	r0, [pc, #28]	@ (80006c0 <main+0x48>)
 80006a2:	f7ff febb 	bl	800041c <neo_thread_start>
 80006a6:	4807      	ldr	r0, [pc, #28]	@ (80006c4 <main+0x4c>)
 80006a8:	f7ff feb8 	bl	800041c <neo_thread_start>
 80006ac:	e7fe      	b.n	80006ac <main+0x34>
 80006ae:	bf00      	nop
 80006b0:	20000004 	andcs	r0, r0, r4
 80006b4:	080001a1 	stmdaeq	r0, {r0, r5, r7, r8}
 80006b8:	200000b0 	strhcs	r0, [r0], -r0	@ <UNPREDICTABLE>
 80006bc:	08000151 	stmdaeq	r0, {r0, r4, r6, r8}
 80006c0:	200000a4 	andcs	r0, r0, r4, lsr #1
 80006c4:	20000150 	andcs	r0, r0, r0, asr r1
