
binaries/output.elf:     file format elf32-littlearm


Disassembly of section .isr_vector:

08000000 <vectors>:
 8000000:	20018000 	andcs	r8, r1, r0
 8000004:	080001b5 	stmdaeq	r0, {r0, r2, r4, r5, r7, r8}
 8000008:	0800019d 	stmdaeq	r0, {r0, r2, r3, r4, r7, r8}
 800000c:	0800019d 	stmdaeq	r0, {r0, r2, r3, r4, r7, r8}
 8000010:	0800019d 	stmdaeq	r0, {r0, r2, r3, r4, r7, r8}
 8000014:	0800019d 	stmdaeq	r0, {r0, r2, r3, r4, r7, r8}
 8000018:	0800019d 	stmdaeq	r0, {r0, r2, r3, r4, r7, r8}
	...
 800002c:	0800019d 	stmdaeq	r0, {r0, r2, r3, r4, r7, r8}
 8000030:	0800019d 	stmdaeq	r0, {r0, r2, r3, r4, r7, r8}
 8000034:	00000000 	andeq	r0, r0, r0
 8000038:	0800019d 	stmdaeq	r0, {r0, r2, r3, r4, r7, r8}
 800003c:	08000175 	stmdaeq	r0, {r0, r2, r4, r5, r6, r8}
 8000040:	0800019d 	stmdaeq	r0, {r0, r2, r3, r4, r7, r8}
 8000044:	0800019d 	stmdaeq	r0, {r0, r2, r3, r4, r7, r8}
 8000048:	0800019d 	stmdaeq	r0, {r0, r2, r3, r4, r7, r8}
 800004c:	0800019d 	stmdaeq	r0, {r0, r2, r3, r4, r7, r8}
 8000050:	0800019d 	stmdaeq	r0, {r0, r2, r3, r4, r7, r8}
 8000054:	0800019d 	stmdaeq	r0, {r0, r2, r3, r4, r7, r8}
 8000058:	0800019d 	stmdaeq	r0, {r0, r2, r3, r4, r7, r8}
 800005c:	0800019d 	stmdaeq	r0, {r0, r2, r3, r4, r7, r8}
 8000060:	0800019d 	stmdaeq	r0, {r0, r2, r3, r4, r7, r8}
 8000064:	0800019d 	stmdaeq	r0, {r0, r2, r3, r4, r7, r8}
 8000068:	0800019d 	stmdaeq	r0, {r0, r2, r3, r4, r7, r8}
 800006c:	0800019d 	stmdaeq	r0, {r0, r2, r3, r4, r7, r8}
 8000070:	0800019d 	stmdaeq	r0, {r0, r2, r3, r4, r7, r8}
 8000074:	0800019d 	stmdaeq	r0, {r0, r2, r3, r4, r7, r8}
 8000078:	0800019d 	stmdaeq	r0, {r0, r2, r3, r4, r7, r8}
 800007c:	0800019d 	stmdaeq	r0, {r0, r2, r3, r4, r7, r8}
 8000080:	0800019d 	stmdaeq	r0, {r0, r2, r3, r4, r7, r8}
 8000084:	0800019d 	stmdaeq	r0, {r0, r2, r3, r4, r7, r8}
 8000088:	0800019d 	stmdaeq	r0, {r0, r2, r3, r4, r7, r8}
 800008c:	0800019d 	stmdaeq	r0, {r0, r2, r3, r4, r7, r8}
 8000090:	0800019d 	stmdaeq	r0, {r0, r2, r3, r4, r7, r8}
 8000094:	0800019d 	stmdaeq	r0, {r0, r2, r3, r4, r7, r8}
 8000098:	0800019d 	stmdaeq	r0, {r0, r2, r3, r4, r7, r8}
 800009c:	0800019d 	stmdaeq	r0, {r0, r2, r3, r4, r7, r8}
 80000a0:	0800019d 	stmdaeq	r0, {r0, r2, r3, r4, r7, r8}
 80000a4:	0800019d 	stmdaeq	r0, {r0, r2, r3, r4, r7, r8}
 80000a8:	0800019d 	stmdaeq	r0, {r0, r2, r3, r4, r7, r8}
 80000ac:	0800019d 	stmdaeq	r0, {r0, r2, r3, r4, r7, r8}
 80000b0:	0800019d 	stmdaeq	r0, {r0, r2, r3, r4, r7, r8}
 80000b4:	0800019d 	stmdaeq	r0, {r0, r2, r3, r4, r7, r8}
 80000b8:	0800019d 	stmdaeq	r0, {r0, r2, r3, r4, r7, r8}
 80000bc:	0800019d 	stmdaeq	r0, {r0, r2, r3, r4, r7, r8}
 80000c0:	0800019d 	stmdaeq	r0, {r0, r2, r3, r4, r7, r8}
 80000c4:	0800019d 	stmdaeq	r0, {r0, r2, r3, r4, r7, r8}
 80000c8:	0800019d 	stmdaeq	r0, {r0, r2, r3, r4, r7, r8}
 80000cc:	0800019d 	stmdaeq	r0, {r0, r2, r3, r4, r7, r8}
 80000d0:	0800019d 	stmdaeq	r0, {r0, r2, r3, r4, r7, r8}
 80000d4:	0800019d 	stmdaeq	r0, {r0, r2, r3, r4, r7, r8}
 80000d8:	0800019d 	stmdaeq	r0, {r0, r2, r3, r4, r7, r8}
 80000dc:	0800019d 	stmdaeq	r0, {r0, r2, r3, r4, r7, r8}
 80000e0:	0800019d 	stmdaeq	r0, {r0, r2, r3, r4, r7, r8}
 80000e4:	0800019d 	stmdaeq	r0, {r0, r2, r3, r4, r7, r8}
 80000e8:	0800019d 	stmdaeq	r0, {r0, r2, r3, r4, r7, r8}
 80000ec:	0800019d 	stmdaeq	r0, {r0, r2, r3, r4, r7, r8}
 80000f0:	0800019d 	stmdaeq	r0, {r0, r2, r3, r4, r7, r8}
 80000f4:	0800019d 	stmdaeq	r0, {r0, r2, r3, r4, r7, r8}
 80000f8:	0800019d 	stmdaeq	r0, {r0, r2, r3, r4, r7, r8}
 80000fc:	0800019d 	stmdaeq	r0, {r0, r2, r3, r4, r7, r8}
 8000100:	0800019d 	stmdaeq	r0, {r0, r2, r3, r4, r7, r8}
 8000104:	0800019d 	stmdaeq	r0, {r0, r2, r3, r4, r7, r8}
 8000108:	0800019d 	stmdaeq	r0, {r0, r2, r3, r4, r7, r8}
 800010c:	0800019d 	stmdaeq	r0, {r0, r2, r3, r4, r7, r8}
 8000110:	0800019d 	stmdaeq	r0, {r0, r2, r3, r4, r7, r8}
 8000114:	0800019d 	stmdaeq	r0, {r0, r2, r3, r4, r7, r8}
 8000118:	0800019d 	stmdaeq	r0, {r0, r2, r3, r4, r7, r8}
 800011c:	0800019d 	stmdaeq	r0, {r0, r2, r3, r4, r7, r8}
	...

Disassembly of section .text:

08000150 <setup_systick>:
 8000150:	f04f 23e0 	mov.w	r3, #3758153728	@ 0xe000e000
 8000154:	691a      	ldr	r2, [r3, #16]
 8000156:	f042 0201 	orr.w	r2, r2, #1
 800015a:	611a      	str	r2, [r3, #16]
 800015c:	691a      	ldr	r2, [r3, #16]
 800015e:	f042 0204 	orr.w	r2, r2, #4
 8000162:	611a      	str	r2, [r3, #16]
 8000164:	691a      	ldr	r2, [r3, #16]
 8000166:	f042 0202 	orr.w	r2, r2, #2
 800016a:	611a      	str	r2, [r3, #16]
 800016c:	f643 627f 	movw	r2, #15999	@ 0x3e7f
 8000170:	615a      	str	r2, [r3, #20]
 8000172:	4770      	bx	lr

08000174 <SysTick_handler>:
 8000174:	4a02      	ldr	r2, [pc, #8]	@ (8000180 <SysTick_handler+0xc>)
 8000176:	6813      	ldr	r3, [r2, #0]
 8000178:	3301      	adds	r3, #1
 800017a:	6013      	str	r3, [r2, #0]
 800017c:	4770      	bx	lr
 800017e:	bf00      	nop
 8000180:	20000000 	andcs	r0, r0, r0

08000184 <has_time_passed>:
 8000184:	b672      	cpsid	i
 8000186:	4b04      	ldr	r3, [pc, #16]	@ (8000198 <has_time_passed+0x14>)
 8000188:	681b      	ldr	r3, [r3, #0]
 800018a:	b662      	cpsie	i
 800018c:	1a59      	subs	r1, r3, r1
 800018e:	4281      	cmp	r1, r0
 8000190:	bf34      	ite	cc
 8000192:	2000      	movcc	r0, #0
 8000194:	2001      	movcs	r0, #1
 8000196:	4770      	bx	lr
 8000198:	20000000 	andcs	r0, r0, r0

0800019c <default_handler>:
 800019c:	f000 b832 	b.w	8000204 <system_reset>

080001a0 <enable_fpu>:
 80001a0:	4a03      	ldr	r2, [pc, #12]	@ (80001b0 <enable_fpu+0x10>)
 80001a2:	f8d2 3088 	ldr.w	r3, [r2, #136]	@ 0x88
 80001a6:	f443 0370 	orr.w	r3, r3, #15728640	@ 0xf00000
 80001aa:	f8c2 3088 	str.w	r3, [r2, #136]	@ 0x88
 80001ae:	4770      	bx	lr
 80001b0:	e000ed00 	and	lr, r0, r0, lsl #26

080001b4 <reset_handler>:
 80001b4:	b510      	push	{r4, lr}
 80001b6:	490e      	ldr	r1, [pc, #56]	@ (80001f0 <reset_handler+0x3c>)
 80001b8:	4b0e      	ldr	r3, [pc, #56]	@ (80001f4 <reset_handler+0x40>)
 80001ba:	480f      	ldr	r0, [pc, #60]	@ (80001f8 <reset_handler+0x44>)
 80001bc:	1a5b      	subs	r3, r3, r1
 80001be:	2200      	movs	r2, #0
 80001c0:	429a      	cmp	r2, r3
 80001c2:	d10b      	bne.n	80001dc <reset_handler+0x28>
 80001c4:	4a0d      	ldr	r2, [pc, #52]	@ (80001fc <reset_handler+0x48>)
 80001c6:	4b0e      	ldr	r3, [pc, #56]	@ (8000200 <reset_handler+0x4c>)
 80001c8:	1ad1      	subs	r1, r2, r3
 80001ca:	2200      	movs	r2, #0
 80001cc:	4610      	mov	r0, r2
 80001ce:	428a      	cmp	r2, r1
 80001d0:	d10a      	bne.n	80001e8 <reset_handler+0x34>
 80001d2:	f7ff ffe5 	bl	80001a0 <enable_fpu>
 80001d6:	f000 f827 	bl	8000228 <main>
 80001da:	e7fe      	b.n	80001da <reset_handler+0x26>
 80001dc:	f810 4b01 	ldrb.w	r4, [r0], #1
 80001e0:	f801 4b01 	strb.w	r4, [r1], #1
 80001e4:	3201      	adds	r2, #1
 80001e6:	e7eb      	b.n	80001c0 <reset_handler+0xc>
 80001e8:	f803 0b01 	strb.w	r0, [r3], #1
 80001ec:	3201      	adds	r2, #1
 80001ee:	e7ee      	b.n	80001ce <reset_handler+0x1a>
 80001f0:	20000000 	andcs	r0, r0, r0
 80001f4:	20000000 	andcs	r0, r0, r0
 80001f8:	08000230 	stmdaeq	r0, {r4, r5, r9}
 80001fc:	20000004 	andcs	r0, r0, r4
 8000200:	20000000 	andcs	r0, r0, r0

08000204 <system_reset>:
 8000204:	f3bf 8f4f 	dsb	sy
 8000208:	4905      	ldr	r1, [pc, #20]	@ (8000220 <system_reset+0x1c>)
 800020a:	4b06      	ldr	r3, [pc, #24]	@ (8000224 <system_reset+0x20>)
 800020c:	68ca      	ldr	r2, [r1, #12]
 800020e:	f402 62e0 	and.w	r2, r2, #1792	@ 0x700
 8000212:	4313      	orrs	r3, r2
 8000214:	60cb      	str	r3, [r1, #12]
 8000216:	f3bf 8f4f 	dsb	sy
 800021a:	bf00      	nop
 800021c:	e7fd      	b.n	800021a <system_reset+0x16>
 800021e:	bf00      	nop
 8000220:	e000ed00 	and	lr, r0, r0, lsl #26
 8000224:	05fa0004 	ldrbeq	r0, [sl, #4]!

08000228 <main>:
 8000228:	b508      	push	{r3, lr}
 800022a:	f7ff ff91 	bl	8000150 <setup_systick>
 800022e:	e7fe      	b.n	800022e <main+0x6>
